; ModuleID = 'D:/OneDrive/UVA/crypto/AES_code/VivadoHLS/inverse_cipher/aes_inverse_cipher/.autopilot/db/a.o.bc'
target datalayout = "e-p:64:64:64-i1:8:8-i8:8:8-i16:16:16-i32:32:32-i64:64:64-f32:32:32-f64:64:64-v64:64:64-v128:128:128-a0:0:64-s0:64:64-f80:128:128-n8:16:32:64-S128"
target triple = "x86_64-w64-mingw32"

%"class.std::ios_base::Init" = type {}

@_ZStL8__ioinit = internal global %"class.std::ios_base::Init" zeroinitializer, align 1 ; [#uses=2 type=%"class.std::ios_base::Init"*]
@_ZL6Nr_max = internal constant i16 14, align 2   ; [#uses=1 type=i16*]
@.str = private unnamed_addr constant [1 x i8] zeroinitializer, align 1 ; [#uses=1 type=[1 x i8]*]
@_ZL5s_box = internal constant [256 x i8] c"c|w{\F2ko\C50\01g+\FE\D7\ABv\CA\82\C9}\FAYG\F0\AD\D4\A2\AF\9C\A4r\C0\B7\FD\93&6?\F7\CC4\A5\E5\F1q\D81\15\04\C7#\C3\18\96\05\9A\07\12\80\E2\EB'\B2u\09\83,\1A\1BnZ\A0R;\D6\B3)\E3/\84S\D1\00\ED \FC\B1[j\CB\BE9JLX\CF\D0\EF\AA\FBCM3\85E\F9\02\7FP<\9F\A8Q\A3@\8F\92\9D8\F5\BC\B6\DA!\10\FF\F3\D2\CD\0C\13\EC_\97D\17\C4\A7~=d]\19s`\81O\DC\22*\90\88F\EE\B8\14\DE^\0B\DB\E02:\0AI\06$\5C\C2\D3\ACb\91\95\E4y\E7\C87m\8D\D5N\A9lV\F4\EAez\AE\08\BAx%.\1C\A6\B4\C6\E8\DDt\1FK\BD\8B\8Ap>\B5fH\03\F6\0Ea5W\B9\86\C1\1D\9E\E1\F8\98\11i\D9\8E\94\9B\1E\87\E9\CEU(\DF\8C\A1\89\0D\BF\E6BhA\99-\0F\B0T\BB\16", align 16 ; [#uses=1 type=[256 x i8]*]
@.str2 = private unnamed_addr constant [12 x i8] c"hls_label_1\00", align 1 ; [#uses=1 type=[12 x i8]*]
@_ZL14inverted_s_box = internal constant [256 x i8] c"R\09j\D506\A58\BF@\A3\9E\81\F3\D7\FB|\E39\82\9B/\FF\874\8ECD\C4\DE\E9\CBT{\942\A6\C2#=\EEL\95\0BB\FA\C3N\08.\A1f(\D9$\B2v[\A2Im\8B\D1%r\F8\F6d\86h\98\16\D4\A4\5C\CC]e\B6\92lpHP\FD\ED\B9\DA^\15FW\A7\8D\9D\84\90\D8\AB\00\8C\BC\D3\0A\F7\E4X\05\B8\B3E\06\D0,\1E\8F\CA?\0F\02\C1\AF\BD\03\01\13\8Ak:\91\11AOg\DC\EA\97\F2\CF\CE\F0\B4\E6s\96\ACt\22\E7\AD5\85\E2\F97\E8\1Cu\DFnG\F1\1Aq\1D)\C5\89o\B7b\0E\AA\18\BE\1B\FCV>K\C6\D2y \9A\DB\C0\FEx\CDZ\F4\1F\DD\A83\88\07\C71\B1\12\10Y'\80\EC_`Q\7F\A9\19\B5J\0D-\E5z\9F\93\C9\9C\EF\A0\E0;M\AE*\F5\B0\C8\EB\BB<\83S\99a\17+\04~\BAw\D6&\E1i\14cU!\0C}", align 16 ; [#uses=2 type=[256 x i8]*]
@_ZL5mul02 = internal constant [256 x i8] c"\00\02\04\06\08\0A\0C\0E\10\12\14\16\18\1A\1C\1E \22$&(*,.02468:<>@BDFHJLNPRTVXZ\5C^`bdfhjlnprtvxz|~\80\82\84\86\88\8A\8C\8E\90\92\94\96\98\9A\9C\9E\A0\A2\A4\A6\A8\AA\AC\AE\B0\B2\B4\B6\B8\BA\BC\BE\C0\C2\C4\C6\C8\CA\CC\CE\D0\D2\D4\D6\D8\DA\DC\DE\E0\E2\E4\E6\E8\EA\EC\EE\F0\F2\F4\F6\F8\FA\FC\FE\1B\19\1F\1D\13\11\17\15\0B\09\0F\0D\03\01\07\05;9?=3175+)/-#!'%[Y_]SQWUKIOMCAGE{y\7F}sqwukiomcage\9B\99\9F\9D\93\91\97\95\8B\89\8F\8D\83\81\87\85\BB\B9\BF\BD\B3\B1\B7\B5\AB\A9\AF\AD\A3\A1\A7\A5\DB\D9\DF\DD\D3\D1\D7\D5\CB\C9\CF\CD\C3\C1\C7\C5\FB\F9\FF\FD\F3\F1\F7\F5\EB\E9\EF\ED\E3\E1\E7\E5", align 16 ; [#uses=1 type=[256 x i8]*]
@_ZL5mul03 = internal constant [256 x i8] c"\00\03\06\05\0C\0F\0A\09\18\1B\1E\1D\14\17\12\110365<?:9(+.-$'\22!`cfelojix{~}twrqPSVU\5C_ZYHKNMDGBA\C0\C3\C6\C5\CC\CF\CA\C9\D8\DB\DE\DD\D4\D7\D2\D1\F0\F3\F6\F5\FC\FF\FA\F9\E8\EB\EE\ED\E4\E7\E2\E1\A0\A3\A6\A5\AC\AF\AA\A9\B8\BB\BE\BD\B4\B7\B2\B1\90\93\96\95\9C\9F\9A\99\88\8B\8E\8D\84\87\82\81\9B\98\9D\9E\97\94\91\92\83\80\85\86\8F\8C\89\8A\AB\A8\AD\AE\A7\A4\A1\A2\B3\B0\B5\B6\BF\BC\B9\BA\FB\F8\FD\FE\F7\F4\F1\F2\E3\E0\E5\E6\EF\EC\E9\EA\CB\C8\CD\CE\C7\C4\C1\C2\D3\D0\D5\D6\DF\DC\D9\DA[X]^WTQRC@EFOLIJkhmngdabspuv\7F|yz;8=>7412# %&/,)*\0B\08\0D\0E\07\04\01\02\13\10\15\16\1F\1C\19\1A", align 16 ; [#uses=1 type=[256 x i8]*]
@_ZL5mul14 = internal constant [256 x i8] c"\00\0E\1C\1286$*p~lbHFTZ\E0\EE\FC\F2\D8\D6\C4\CA\90\9E\8C\82\A8\A6\B4\BA\DB\D5\C7\C9\E3\ED\FF\F1\AB\A5\B7\B9\93\9D\8F\81;5')\03\0D\1F\11KEWYs}oa\AD\A3\B1\BF\95\9B\89\87\DD\D3\C1\CF\E5\EB\F9\F7MCQ_u{ig=3!/\05\0B\19\17vxjdN@R\5C\06\08\1A\14>0\22,\96\98\8A\84\AE\A0\B2\BC\E6\E8\FA\F4\DE\D0\C2\CCAO]Sywek1?-#\09\07\15\1B\A1\AF\BD\B3\99\97\85\8B\D1\DF\CD\C3\E9\E7\F5\FB\9A\94\86\88\A2\AC\BE\B0\EA\E4\F6\F8\D2\DC\CE\C0ztfhBL^P\0A\04\16\182<. \EC\E2\F0\FE\D4\DA\C8\C6\9C\92\80\8E\A4\AA\B8\B6\0C\02\10\1E4:(&|r`nDJXV79+%\0F\01\13\1DGI[U\7Fqcm\D7\D9\CB\C5\EF\E1\F3\FD\A7\A9\BB\B5\9F\91\83\8D", align 16 ; [#uses=17 type=[256 x i8]*]
@_ZL5mul11 = internal constant [256 x i8] c"\00\0B\16\1D,':1XSNEt\7Fbi\B0\BB\A6\AD\9C\97\8A\81\E8\E3\FE\F5\C4\CF\D2\D9{pmfW\5CAJ#(5>\0F\04\19\12\CB\C0\DD\D6\E7\EC\F1\FA\93\98\85\8E\BF\B4\A9\A2\F6\FD\E0\EB\DA\D1\CC\C7\AE\A5\B8\B3\82\89\94\9FFMP[ja|w\1E\15\08\0329$/\8D\86\9B\90\A1\AA\B7\BC\D5\DE\C3\C8\F9\F2\EF\E4=6+ \11\1A\07\0CensxIB_T\F7\FC\E1\EA\DB\D0\CD\C6\AF\A4\B9\B2\83\88\95\9EGLQZk`}v\1F\14\09\0238%.\8C\87\9A\91\A0\AB\B6\BD\D4\DF\C2\C9\F8\F3\EE\E5<7*!\10\1B\06\0DdoryHC^U\01\0A\17\1C-&;0YRODu~ch\B1\BA\A7\AC\9D\96\8B\80\E9\E2\FF\F4\C5\CE\D3\D8zqlgV]@K\22)4?\0E\05\18\13\CA\C1\DC\D7\E6\ED\F0\FB\92\99\84\8F\BE\B5\A8\A3", align 16 ; [#uses=17 type=[256 x i8]*]
@_ZL5mul13 = internal constant [256 x i8] c"\00\0D\1A\1749.#her\7F\5CQFK\D0\DD\CA\C7\E4\E9\FE\F3\B8\B5\A2\AF\8C\81\96\9B\BB\B6\A1\AC\8F\82\95\98\D3\DE\C9\C4\E7\EA\FD\F0kfq|_REH\03\0E\19\147:- m`wzYTCN\05\08\1F\121<+&\BD\B0\A7\AA\89\84\93\9E\D5\D8\CF\C2\E1\EC\FB\F6\D6\DB\CC\C1\E2\EF\F8\F5\BE\B3\A4\A9\8A\87\90\9D\06\0B\1C\112?(%nctyZW@M\DA\D7\C0\CD\EE\E3\F4\F9\B2\BF\A8\A5\86\8B\9C\91\0A\07\10\1D>3$)boxuV[LAal{vUXOB\09\04\13\1E=0'*\B1\BC\AB\A6\85\88\9F\92\D9\D4\C3\CE\ED\E0\F7\FA\B7\BA\AD\A0\83\8E\99\94\DF\D2\C5\C8\EB\E6\F1\FCgj}pS^ID\0F\02\15\18;6!,\0C\01\16\1B85\22/di~sP]JG\DC\D1\C6\CB\E8\E5\F2\FF\B4\B9\AE\A3\80\8D\9A\97", align 16 ; [#uses=17 type=[256 x i8]*]
@_ZL5mul09 = internal constant [256 x i8] c"\00\09\12\1B$-6?HAZSle~w\90\99\82\8B\B4\BD\A6\AF\D8\D1\CA\C3\FC\F5\EE\E7;2) \1F\16\0D\04szahW^EL\AB\A2\B9\B0\8F\86\9D\94\E3\EA\F1\F8\C7\CE\D5\DCv\7FdmR[@I>7,%\1A\13\08\01\E6\EF\F4\FD\C2\CB\D0\D9\AE\A7\BC\B5\8A\83\98\91MD_Vi`{r\05\0C\17\1E!(3:\DD\D4\CF\C6\F9\F0\EB\E2\95\9C\87\8E\B1\B8\A3\AA\EC\E5\FE\F7\C8\C1\DA\D3\A4\AD\B6\BF\80\89\92\9B|ungXQJC4=&/\10\19\02\0B\D7\DE\C5\CC\F3\FA\E1\E8\9F\96\8D\84\BB\B2\A9\A0GNU\5Ccjqx\0F\06\1D\14+\2290\9A\93\88\81\BE\B7\AC\A5\D2\DB\C0\C9\F6\FF\E4\ED\0A\03\18\11.'<5BKPYfot}\A1\A8\B3\BA\85\8C\97\9E\E9\E0\FB\F2\CD\C4\DF\D618#*\15\1C\07\0Eypkb]TOF", align 16 ; [#uses=17 type=[256 x i8]*]
@.str3 = private unnamed_addr constant [12 x i8] c"hls_label_2\00", align 1 ; [#uses=1 type=[12 x i8]*]
@.str4 = private unnamed_addr constant [5 x i8] c"axis\00", align 1 ; [#uses=1 type=[5 x i8]*]
@.str5 = private unnamed_addr constant [5 x i8] c"both\00", align 1 ; [#uses=1 type=[5 x i8]*]
@.str6 = private unnamed_addr constant [12 x i8] c"AddRoundKey\00", align 1 ; [#uses=1 type=[12 x i8]*]
@.str8 = private unnamed_addr constant [11 x i8] c"HORIZONTAL\00", align 1 ; [#uses=1 type=[11 x i8]*]
@.str9 = private unnamed_addr constant [7 x i8] c"L_copy\00", align 1 ; [#uses=1 type=[7 x i8]*]
@.str10 = private unnamed_addr constant [9 x i8] c"L_rounds\00", align 1 ; [#uses=1 type=[9 x i8]*]
@.str12 = private unnamed_addr constant [15 x i8] c"inverse_cipher\00", align 1 ; [#uses=1 type=[15 x i8]*]
@.str13 = private unnamed_addr constant [12 x i8] c"hls_label_4\00", align 1 ; [#uses=1 type=[12 x i8]*]
@_ZL21ssdm_global_array_ins = internal global %"class.std::ios_base::Init" zeroinitializer, align 1 ; [#uses=1 type=%"class.std::ios_base::Init"*]
@_ZL2Nb = internal constant i16 4, align 2        ; [#uses=1 type=i16*]
@_ZL4rows = internal constant i16 4, align 2      ; [#uses=1 type=i16*]
@_ZL7stt_lng = internal constant i16 16, align 2  ; [#uses=1 type=i16*]
@_ZL6Nk_max = internal constant i16 8, align 2    ; [#uses=1 type=i16*]
@_ZL20CipherKeyLenghth_max = internal constant i16 32, align 2 ; [#uses=1 type=i16*]
@_ZL24ExtdCipherKeyLenghth_max = internal constant i16 240, align 2 ; [#uses=1 type=i16*]
@llvm.global_ctors = appending global [1 x { i32, void ()* }] [{ i32, void ()* } { i32 65535, void ()* @_GLOBAL__I_a }] ; [#uses=0 type=[1 x { i32, void ()* }]*]

; [#uses=1]
define internal void @__cxx_global_var_init() nounwind {
  call void @_ZNSt8ios_base4InitC1Ev(%"class.std::ios_base::Init"* @_ZStL8__ioinit)
  %1 = call i32 @atexit(void ()* @__dtor__ZStL8__ioinit) ; [#uses=0 type=i32]
  ret void
}

; [#uses=1]
declare void @_ZNSt8ios_base4InitC1Ev(%"class.std::ios_base::Init"*)

; [#uses=1]
declare void @_ZNSt8ios_base4InitD1Ev(%"class.std::ios_base::Init"*)

; [#uses=1]
define internal void @__dtor__ZStL8__ioinit() nounwind {
  call void @_ZNSt8ios_base4InitD1Ev(%"class.std::ios_base::Init"* @_ZStL8__ioinit)
  ret void
}

; [#uses=1]
declare i32 @atexit(void ()*) nounwind

; [#uses=21]
declare void @llvm.dbg.declare(metadata, metadata) nounwind readnone

; [#uses=4]
declare void @_ssdm_InlineSelf(...) nounwind

; [#uses=5]
declare void @_ssdm_RegionBegin(...) nounwind

; [#uses=3]
declare void @_ssdm_Unroll(...) nounwind

; [#uses=5]
declare void @_ssdm_RegionEnd(...) nounwind

; [#uses=1]
define internal void @_Z11InvSubBytesPh(i8* %state) nounwind uwtable {
  %1 = alloca i8*, align 8                        ; [#uses=3 type=i8**]
  %i = alloca i16, align 2                        ; [#uses=6 type=i16*]
  store i8* %state, i8** %1, align 8
  call void @llvm.dbg.declare(metadata !{i8** %1}, metadata !2726), !dbg !2727 ; [debug line = 12:33] [debug variable = state]
  call void (...)* @_ssdm_InlineSelf(i32 2, i8* getelementptr inbounds ([1 x i8]* @.str, i32 0, i32 0)) nounwind, !dbg !2728 ; [debug line = 13:1]
  call void @llvm.dbg.declare(metadata !{i16* %i}, metadata !2730), !dbg !2732 ; [debug line = 14:22] [debug variable = i]
  store i16 0, i16* %i, align 2, !dbg !2733       ; [debug line = 14:27]
  br label %2, !dbg !2733                         ; [debug line = 14:27]

; <label>:2                                       ; preds = %19, %0
  %3 = load i16* %i, align 2, !dbg !2733          ; [#uses=1 type=i16] [debug line = 14:27]
  %4 = zext i16 %3 to i32, !dbg !2733             ; [#uses=1 type=i32] [debug line = 14:27]
  %5 = icmp slt i32 %4, 16, !dbg !2733            ; [#uses=1 type=i1] [debug line = 14:27]
  br i1 %5, label %6, label %22, !dbg !2733       ; [debug line = 14:27]

; <label>:6                                       ; preds = %2
  call void (...)* @_ssdm_RegionBegin(i8* getelementptr inbounds ([12 x i8]* @.str2, i32 0, i32 0)) nounwind, !dbg !2734 ; [debug line = 14:48]
  call void (...)* @_ssdm_Unroll(i32 0, i32 0, i32 0, i8* getelementptr inbounds ([1 x i8]* @.str, i32 0, i32 0)) nounwind, !dbg !2736 ; [debug line = 15:1]
  %7 = load i16* %i, align 2, !dbg !2737          ; [#uses=1 type=i16] [debug line = 16:2]
  %8 = zext i16 %7 to i64, !dbg !2737             ; [#uses=1 type=i64] [debug line = 16:2]
  %9 = load i8** %1, align 8, !dbg !2737          ; [#uses=1 type=i8*] [debug line = 16:2]
  %10 = getelementptr inbounds i8* %9, i64 %8, !dbg !2737 ; [#uses=1 type=i8*] [debug line = 16:2]
  %11 = load i8* %10, align 1, !dbg !2737         ; [#uses=1 type=i8] [debug line = 16:2]
  %12 = zext i8 %11 to i64, !dbg !2737            ; [#uses=1 type=i64] [debug line = 16:2]
  %13 = getelementptr inbounds [256 x i8]* @_ZL14inverted_s_box, i32 0, i64 %12, !dbg !2737 ; [#uses=1 type=i8*] [debug line = 16:2]
  %14 = load i8* %13, align 1, !dbg !2737         ; [#uses=1 type=i8] [debug line = 16:2]
  %15 = load i16* %i, align 2, !dbg !2737         ; [#uses=1 type=i16] [debug line = 16:2]
  %16 = zext i16 %15 to i64, !dbg !2737           ; [#uses=1 type=i64] [debug line = 16:2]
  %17 = load i8** %1, align 8, !dbg !2737         ; [#uses=1 type=i8*] [debug line = 16:2]
  %18 = getelementptr inbounds i8* %17, i64 %16, !dbg !2737 ; [#uses=1 type=i8*] [debug line = 16:2]
  store i8 %14, i8* %18, align 1, !dbg !2737      ; [debug line = 16:2]
  call void (...)* @_ssdm_RegionEnd(i8* getelementptr inbounds ([12 x i8]* @.str2, i32 0, i32 0)) nounwind, !dbg !2738 ; [debug line = 17:2]
  br label %19, !dbg !2738                        ; [debug line = 17:2]

; <label>:19                                      ; preds = %6
  %20 = load i16* %i, align 2, !dbg !2739         ; [#uses=1 type=i16] [debug line = 14:42]
  %21 = add i16 %20, 1, !dbg !2739                ; [#uses=1 type=i16] [debug line = 14:42]
  store i16 %21, i16* %i, align 2, !dbg !2739     ; [debug line = 14:42]
  br label %2, !dbg !2739                         ; [debug line = 14:42]

; <label>:22                                      ; preds = %2
  ret void, !dbg !2740                            ; [debug line = 18:1]
}

; [#uses=1]
define internal void @_Z12InvShiftRowsPh(i8* %state) nounwind uwtable {
  %1 = alloca i8*, align 8                        ; [#uses=18 type=i8**]
  %tmp_state = alloca [16 x i8], align 16         ; [#uses=17 type=[16 x i8]*]
  %i = alloca i16, align 2                        ; [#uses=6 type=i16*]
  store i8* %state, i8** %1, align 8
  call void @llvm.dbg.declare(metadata !{i8** %1}, metadata !2741), !dbg !2742 ; [debug line = 47:34] [debug variable = state]
  call void (...)* @_ssdm_InlineSelf(i32 2, i8* getelementptr inbounds ([1 x i8]* @.str, i32 0, i32 0)) nounwind, !dbg !2743 ; [debug line = 48:1]
  call void @llvm.dbg.declare(metadata !{[16 x i8]* %tmp_state}, metadata !2745), !dbg !2747 ; [debug line = 49:16] [debug variable = tmp_state]
  %2 = load i8** %1, align 8, !dbg !2748          ; [#uses=1 type=i8*] [debug line = 50:2]
  %3 = getelementptr inbounds i8* %2, i64 0, !dbg !2748 ; [#uses=1 type=i8*] [debug line = 50:2]
  %4 = load i8* %3, align 1, !dbg !2748           ; [#uses=1 type=i8] [debug line = 50:2]
  %5 = getelementptr inbounds [16 x i8]* %tmp_state, i32 0, i64 0, !dbg !2748 ; [#uses=1 type=i8*] [debug line = 50:2]
  store i8 %4, i8* %5, align 1, !dbg !2748        ; [debug line = 50:2]
  %6 = load i8** %1, align 8, !dbg !2749          ; [#uses=1 type=i8*] [debug line = 51:2]
  %7 = getelementptr inbounds i8* %6, i64 13, !dbg !2749 ; [#uses=1 type=i8*] [debug line = 51:2]
  %8 = load i8* %7, align 1, !dbg !2749           ; [#uses=1 type=i8] [debug line = 51:2]
  %9 = getelementptr inbounds [16 x i8]* %tmp_state, i32 0, i64 1, !dbg !2749 ; [#uses=1 type=i8*] [debug line = 51:2]
  store i8 %8, i8* %9, align 1, !dbg !2749        ; [debug line = 51:2]
  %10 = load i8** %1, align 8, !dbg !2750         ; [#uses=1 type=i8*] [debug line = 52:2]
  %11 = getelementptr inbounds i8* %10, i64 10, !dbg !2750 ; [#uses=1 type=i8*] [debug line = 52:2]
  %12 = load i8* %11, align 1, !dbg !2750         ; [#uses=1 type=i8] [debug line = 52:2]
  %13 = getelementptr inbounds [16 x i8]* %tmp_state, i32 0, i64 2, !dbg !2750 ; [#uses=1 type=i8*] [debug line = 52:2]
  store i8 %12, i8* %13, align 1, !dbg !2750      ; [debug line = 52:2]
  %14 = load i8** %1, align 8, !dbg !2751         ; [#uses=1 type=i8*] [debug line = 53:2]
  %15 = getelementptr inbounds i8* %14, i64 7, !dbg !2751 ; [#uses=1 type=i8*] [debug line = 53:2]
  %16 = load i8* %15, align 1, !dbg !2751         ; [#uses=1 type=i8] [debug line = 53:2]
  %17 = getelementptr inbounds [16 x i8]* %tmp_state, i32 0, i64 3, !dbg !2751 ; [#uses=1 type=i8*] [debug line = 53:2]
  store i8 %16, i8* %17, align 1, !dbg !2751      ; [debug line = 53:2]
  %18 = load i8** %1, align 8, !dbg !2752         ; [#uses=1 type=i8*] [debug line = 55:2]
  %19 = getelementptr inbounds i8* %18, i64 4, !dbg !2752 ; [#uses=1 type=i8*] [debug line = 55:2]
  %20 = load i8* %19, align 1, !dbg !2752         ; [#uses=1 type=i8] [debug line = 55:2]
  %21 = getelementptr inbounds [16 x i8]* %tmp_state, i32 0, i64 4, !dbg !2752 ; [#uses=1 type=i8*] [debug line = 55:2]
  store i8 %20, i8* %21, align 1, !dbg !2752      ; [debug line = 55:2]
  %22 = load i8** %1, align 8, !dbg !2753         ; [#uses=1 type=i8*] [debug line = 56:2]
  %23 = getelementptr inbounds i8* %22, i64 1, !dbg !2753 ; [#uses=1 type=i8*] [debug line = 56:2]
  %24 = load i8* %23, align 1, !dbg !2753         ; [#uses=1 type=i8] [debug line = 56:2]
  %25 = getelementptr inbounds [16 x i8]* %tmp_state, i32 0, i64 5, !dbg !2753 ; [#uses=1 type=i8*] [debug line = 56:2]
  store i8 %24, i8* %25, align 1, !dbg !2753      ; [debug line = 56:2]
  %26 = load i8** %1, align 8, !dbg !2754         ; [#uses=1 type=i8*] [debug line = 57:2]
  %27 = getelementptr inbounds i8* %26, i64 14, !dbg !2754 ; [#uses=1 type=i8*] [debug line = 57:2]
  %28 = load i8* %27, align 1, !dbg !2754         ; [#uses=1 type=i8] [debug line = 57:2]
  %29 = getelementptr inbounds [16 x i8]* %tmp_state, i32 0, i64 6, !dbg !2754 ; [#uses=1 type=i8*] [debug line = 57:2]
  store i8 %28, i8* %29, align 1, !dbg !2754      ; [debug line = 57:2]
  %30 = load i8** %1, align 8, !dbg !2755         ; [#uses=1 type=i8*] [debug line = 58:2]
  %31 = getelementptr inbounds i8* %30, i64 11, !dbg !2755 ; [#uses=1 type=i8*] [debug line = 58:2]
  %32 = load i8* %31, align 1, !dbg !2755         ; [#uses=1 type=i8] [debug line = 58:2]
  %33 = getelementptr inbounds [16 x i8]* %tmp_state, i32 0, i64 7, !dbg !2755 ; [#uses=1 type=i8*] [debug line = 58:2]
  store i8 %32, i8* %33, align 1, !dbg !2755      ; [debug line = 58:2]
  %34 = load i8** %1, align 8, !dbg !2756         ; [#uses=1 type=i8*] [debug line = 60:2]
  %35 = getelementptr inbounds i8* %34, i64 8, !dbg !2756 ; [#uses=1 type=i8*] [debug line = 60:2]
  %36 = load i8* %35, align 1, !dbg !2756         ; [#uses=1 type=i8] [debug line = 60:2]
  %37 = getelementptr inbounds [16 x i8]* %tmp_state, i32 0, i64 8, !dbg !2756 ; [#uses=1 type=i8*] [debug line = 60:2]
  store i8 %36, i8* %37, align 1, !dbg !2756      ; [debug line = 60:2]
  %38 = load i8** %1, align 8, !dbg !2757         ; [#uses=1 type=i8*] [debug line = 61:2]
  %39 = getelementptr inbounds i8* %38, i64 5, !dbg !2757 ; [#uses=1 type=i8*] [debug line = 61:2]
  %40 = load i8* %39, align 1, !dbg !2757         ; [#uses=1 type=i8] [debug line = 61:2]
  %41 = getelementptr inbounds [16 x i8]* %tmp_state, i32 0, i64 9, !dbg !2757 ; [#uses=1 type=i8*] [debug line = 61:2]
  store i8 %40, i8* %41, align 1, !dbg !2757      ; [debug line = 61:2]
  %42 = load i8** %1, align 8, !dbg !2758         ; [#uses=1 type=i8*] [debug line = 62:2]
  %43 = getelementptr inbounds i8* %42, i64 2, !dbg !2758 ; [#uses=1 type=i8*] [debug line = 62:2]
  %44 = load i8* %43, align 1, !dbg !2758         ; [#uses=1 type=i8] [debug line = 62:2]
  %45 = getelementptr inbounds [16 x i8]* %tmp_state, i32 0, i64 10, !dbg !2758 ; [#uses=1 type=i8*] [debug line = 62:2]
  store i8 %44, i8* %45, align 1, !dbg !2758      ; [debug line = 62:2]
  %46 = load i8** %1, align 8, !dbg !2759         ; [#uses=1 type=i8*] [debug line = 63:2]
  %47 = getelementptr inbounds i8* %46, i64 15, !dbg !2759 ; [#uses=1 type=i8*] [debug line = 63:2]
  %48 = load i8* %47, align 1, !dbg !2759         ; [#uses=1 type=i8] [debug line = 63:2]
  %49 = getelementptr inbounds [16 x i8]* %tmp_state, i32 0, i64 11, !dbg !2759 ; [#uses=1 type=i8*] [debug line = 63:2]
  store i8 %48, i8* %49, align 1, !dbg !2759      ; [debug line = 63:2]
  %50 = load i8** %1, align 8, !dbg !2760         ; [#uses=1 type=i8*] [debug line = 65:2]
  %51 = getelementptr inbounds i8* %50, i64 12, !dbg !2760 ; [#uses=1 type=i8*] [debug line = 65:2]
  %52 = load i8* %51, align 1, !dbg !2760         ; [#uses=1 type=i8] [debug line = 65:2]
  %53 = getelementptr inbounds [16 x i8]* %tmp_state, i32 0, i64 12, !dbg !2760 ; [#uses=1 type=i8*] [debug line = 65:2]
  store i8 %52, i8* %53, align 1, !dbg !2760      ; [debug line = 65:2]
  %54 = load i8** %1, align 8, !dbg !2761         ; [#uses=1 type=i8*] [debug line = 66:2]
  %55 = getelementptr inbounds i8* %54, i64 9, !dbg !2761 ; [#uses=1 type=i8*] [debug line = 66:2]
  %56 = load i8* %55, align 1, !dbg !2761         ; [#uses=1 type=i8] [debug line = 66:2]
  %57 = getelementptr inbounds [16 x i8]* %tmp_state, i32 0, i64 13, !dbg !2761 ; [#uses=1 type=i8*] [debug line = 66:2]
  store i8 %56, i8* %57, align 1, !dbg !2761      ; [debug line = 66:2]
  %58 = load i8** %1, align 8, !dbg !2762         ; [#uses=1 type=i8*] [debug line = 67:2]
  %59 = getelementptr inbounds i8* %58, i64 6, !dbg !2762 ; [#uses=1 type=i8*] [debug line = 67:2]
  %60 = load i8* %59, align 1, !dbg !2762         ; [#uses=1 type=i8] [debug line = 67:2]
  %61 = getelementptr inbounds [16 x i8]* %tmp_state, i32 0, i64 14, !dbg !2762 ; [#uses=1 type=i8*] [debug line = 67:2]
  store i8 %60, i8* %61, align 1, !dbg !2762      ; [debug line = 67:2]
  %62 = load i8** %1, align 8, !dbg !2763         ; [#uses=1 type=i8*] [debug line = 68:2]
  %63 = getelementptr inbounds i8* %62, i64 3, !dbg !2763 ; [#uses=1 type=i8*] [debug line = 68:2]
  %64 = load i8* %63, align 1, !dbg !2763         ; [#uses=1 type=i8] [debug line = 68:2]
  %65 = getelementptr inbounds [16 x i8]* %tmp_state, i32 0, i64 15, !dbg !2763 ; [#uses=1 type=i8*] [debug line = 68:2]
  store i8 %64, i8* %65, align 1, !dbg !2763      ; [debug line = 68:2]
  call void @llvm.dbg.declare(metadata !{i16* %i}, metadata !2764), !dbg !2766 ; [debug line = 69:22] [debug variable = i]
  store i16 0, i16* %i, align 2, !dbg !2767       ; [debug line = 69:27]
  br label %66, !dbg !2767                        ; [debug line = 69:27]

; <label>:66                                      ; preds = %79, %0
  %67 = load i16* %i, align 2, !dbg !2767         ; [#uses=1 type=i16] [debug line = 69:27]
  %68 = zext i16 %67 to i32, !dbg !2767           ; [#uses=1 type=i32] [debug line = 69:27]
  %69 = icmp slt i32 %68, 16, !dbg !2767          ; [#uses=1 type=i1] [debug line = 69:27]
  br i1 %69, label %70, label %82, !dbg !2767     ; [debug line = 69:27]

; <label>:70                                      ; preds = %66
  %71 = load i16* %i, align 2, !dbg !2768         ; [#uses=1 type=i16] [debug line = 70:3]
  %72 = zext i16 %71 to i64, !dbg !2768           ; [#uses=1 type=i64] [debug line = 70:3]
  %73 = getelementptr inbounds [16 x i8]* %tmp_state, i32 0, i64 %72, !dbg !2768 ; [#uses=1 type=i8*] [debug line = 70:3]
  %74 = load i8* %73, align 1, !dbg !2768         ; [#uses=1 type=i8] [debug line = 70:3]
  %75 = load i16* %i, align 2, !dbg !2768         ; [#uses=1 type=i16] [debug line = 70:3]
  %76 = zext i16 %75 to i64, !dbg !2768           ; [#uses=1 type=i64] [debug line = 70:3]
  %77 = load i8** %1, align 8, !dbg !2768         ; [#uses=1 type=i8*] [debug line = 70:3]
  %78 = getelementptr inbounds i8* %77, i64 %76, !dbg !2768 ; [#uses=1 type=i8*] [debug line = 70:3]
  store i8 %74, i8* %78, align 1, !dbg !2768      ; [debug line = 70:3]
  br label %79, !dbg !2770                        ; [debug line = 71:2]

; <label>:79                                      ; preds = %70
  %80 = load i16* %i, align 2, !dbg !2771         ; [#uses=1 type=i16] [debug line = 69:42]
  %81 = add i16 %80, 1, !dbg !2771                ; [#uses=1 type=i16] [debug line = 69:42]
  store i16 %81, i16* %i, align 2, !dbg !2771     ; [debug line = 69:42]
  br label %66, !dbg !2771                        ; [debug line = 69:42]

; <label>:82                                      ; preds = %66
  ret void, !dbg !2772                            ; [debug line = 72:1]
}

; [#uses=1]
define internal void @_Z13InvMixColumnsPh(i8* %state) nounwind uwtable {
  %1 = alloca i8*, align 8                        ; [#uses=66 type=i8**]
  %tmp_state = alloca [16 x i8], align 16         ; [#uses=17 type=[16 x i8]*]
  %i = alloca i16, align 2                        ; [#uses=6 type=i16*]
  store i8* %state, i8** %1, align 8
  call void @llvm.dbg.declare(metadata !{i8** %1}, metadata !2773), !dbg !2774 ; [debug line = 101:35] [debug variable = state]
  call void (...)* @_ssdm_InlineSelf(i32 2, i8* getelementptr inbounds ([1 x i8]* @.str, i32 0, i32 0)) nounwind, !dbg !2775 ; [debug line = 102:1]
  call void @llvm.dbg.declare(metadata !{[16 x i8]* %tmp_state}, metadata !2777), !dbg !2778 ; [debug line = 103:16] [debug variable = tmp_state]
  %2 = load i8** %1, align 8, !dbg !2779          ; [#uses=1 type=i8*] [debug line = 104:2]
  %3 = getelementptr inbounds i8* %2, i64 0, !dbg !2779 ; [#uses=1 type=i8*] [debug line = 104:2]
  %4 = load i8* %3, align 1, !dbg !2779           ; [#uses=1 type=i8] [debug line = 104:2]
  %5 = zext i8 %4 to i64, !dbg !2779              ; [#uses=1 type=i64] [debug line = 104:2]
  %6 = getelementptr inbounds [256 x i8]* @_ZL5mul14, i32 0, i64 %5, !dbg !2779 ; [#uses=1 type=i8*] [debug line = 104:2]
  %7 = load i8* %6, align 1, !dbg !2779           ; [#uses=1 type=i8] [debug line = 104:2]
  %8 = zext i8 %7 to i32, !dbg !2779              ; [#uses=1 type=i32] [debug line = 104:2]
  %9 = load i8** %1, align 8, !dbg !2779          ; [#uses=1 type=i8*] [debug line = 104:2]
  %10 = getelementptr inbounds i8* %9, i64 1, !dbg !2779 ; [#uses=1 type=i8*] [debug line = 104:2]
  %11 = load i8* %10, align 1, !dbg !2779         ; [#uses=1 type=i8] [debug line = 104:2]
  %12 = zext i8 %11 to i64, !dbg !2779            ; [#uses=1 type=i64] [debug line = 104:2]
  %13 = getelementptr inbounds [256 x i8]* @_ZL5mul11, i32 0, i64 %12, !dbg !2779 ; [#uses=1 type=i8*] [debug line = 104:2]
  %14 = load i8* %13, align 1, !dbg !2779         ; [#uses=1 type=i8] [debug line = 104:2]
  %15 = zext i8 %14 to i32, !dbg !2779            ; [#uses=1 type=i32] [debug line = 104:2]
  %16 = xor i32 %8, %15, !dbg !2779               ; [#uses=1 type=i32] [debug line = 104:2]
  %17 = load i8** %1, align 8, !dbg !2779         ; [#uses=1 type=i8*] [debug line = 104:2]
  %18 = getelementptr inbounds i8* %17, i64 2, !dbg !2779 ; [#uses=1 type=i8*] [debug line = 104:2]
  %19 = load i8* %18, align 1, !dbg !2779         ; [#uses=1 type=i8] [debug line = 104:2]
  %20 = zext i8 %19 to i64, !dbg !2779            ; [#uses=1 type=i64] [debug line = 104:2]
  %21 = getelementptr inbounds [256 x i8]* @_ZL5mul13, i32 0, i64 %20, !dbg !2779 ; [#uses=1 type=i8*] [debug line = 104:2]
  %22 = load i8* %21, align 1, !dbg !2779         ; [#uses=1 type=i8] [debug line = 104:2]
  %23 = zext i8 %22 to i32, !dbg !2779            ; [#uses=1 type=i32] [debug line = 104:2]
  %24 = xor i32 %16, %23, !dbg !2779              ; [#uses=1 type=i32] [debug line = 104:2]
  %25 = load i8** %1, align 8, !dbg !2779         ; [#uses=1 type=i8*] [debug line = 104:2]
  %26 = getelementptr inbounds i8* %25, i64 3, !dbg !2779 ; [#uses=1 type=i8*] [debug line = 104:2]
  %27 = load i8* %26, align 1, !dbg !2779         ; [#uses=1 type=i8] [debug line = 104:2]
  %28 = zext i8 %27 to i64, !dbg !2779            ; [#uses=1 type=i64] [debug line = 104:2]
  %29 = getelementptr inbounds [256 x i8]* @_ZL5mul09, i32 0, i64 %28, !dbg !2779 ; [#uses=1 type=i8*] [debug line = 104:2]
  %30 = load i8* %29, align 1, !dbg !2779         ; [#uses=1 type=i8] [debug line = 104:2]
  %31 = zext i8 %30 to i32, !dbg !2779            ; [#uses=1 type=i32] [debug line = 104:2]
  %32 = xor i32 %24, %31, !dbg !2779              ; [#uses=1 type=i32] [debug line = 104:2]
  %33 = trunc i32 %32 to i8, !dbg !2779           ; [#uses=1 type=i8] [debug line = 104:2]
  %34 = getelementptr inbounds [16 x i8]* %tmp_state, i32 0, i64 0, !dbg !2779 ; [#uses=1 type=i8*] [debug line = 104:2]
  store i8 %33, i8* %34, align 1, !dbg !2779      ; [debug line = 104:2]
  %35 = load i8** %1, align 8, !dbg !2780         ; [#uses=1 type=i8*] [debug line = 106:2]
  %36 = getelementptr inbounds i8* %35, i64 0, !dbg !2780 ; [#uses=1 type=i8*] [debug line = 106:2]
  %37 = load i8* %36, align 1, !dbg !2780         ; [#uses=1 type=i8] [debug line = 106:2]
  %38 = zext i8 %37 to i64, !dbg !2780            ; [#uses=1 type=i64] [debug line = 106:2]
  %39 = getelementptr inbounds [256 x i8]* @_ZL5mul09, i32 0, i64 %38, !dbg !2780 ; [#uses=1 type=i8*] [debug line = 106:2]
  %40 = load i8* %39, align 1, !dbg !2780         ; [#uses=1 type=i8] [debug line = 106:2]
  %41 = zext i8 %40 to i32, !dbg !2780            ; [#uses=1 type=i32] [debug line = 106:2]
  %42 = load i8** %1, align 8, !dbg !2780         ; [#uses=1 type=i8*] [debug line = 106:2]
  %43 = getelementptr inbounds i8* %42, i64 1, !dbg !2780 ; [#uses=1 type=i8*] [debug line = 106:2]
  %44 = load i8* %43, align 1, !dbg !2780         ; [#uses=1 type=i8] [debug line = 106:2]
  %45 = zext i8 %44 to i64, !dbg !2780            ; [#uses=1 type=i64] [debug line = 106:2]
  %46 = getelementptr inbounds [256 x i8]* @_ZL5mul14, i32 0, i64 %45, !dbg !2780 ; [#uses=1 type=i8*] [debug line = 106:2]
  %47 = load i8* %46, align 1, !dbg !2780         ; [#uses=1 type=i8] [debug line = 106:2]
  %48 = zext i8 %47 to i32, !dbg !2780            ; [#uses=1 type=i32] [debug line = 106:2]
  %49 = xor i32 %41, %48, !dbg !2780              ; [#uses=1 type=i32] [debug line = 106:2]
  %50 = load i8** %1, align 8, !dbg !2780         ; [#uses=1 type=i8*] [debug line = 106:2]
  %51 = getelementptr inbounds i8* %50, i64 2, !dbg !2780 ; [#uses=1 type=i8*] [debug line = 106:2]
  %52 = load i8* %51, align 1, !dbg !2780         ; [#uses=1 type=i8] [debug line = 106:2]
  %53 = zext i8 %52 to i64, !dbg !2780            ; [#uses=1 type=i64] [debug line = 106:2]
  %54 = getelementptr inbounds [256 x i8]* @_ZL5mul11, i32 0, i64 %53, !dbg !2780 ; [#uses=1 type=i8*] [debug line = 106:2]
  %55 = load i8* %54, align 1, !dbg !2780         ; [#uses=1 type=i8] [debug line = 106:2]
  %56 = zext i8 %55 to i32, !dbg !2780            ; [#uses=1 type=i32] [debug line = 106:2]
  %57 = xor i32 %49, %56, !dbg !2780              ; [#uses=1 type=i32] [debug line = 106:2]
  %58 = load i8** %1, align 8, !dbg !2780         ; [#uses=1 type=i8*] [debug line = 106:2]
  %59 = getelementptr inbounds i8* %58, i64 3, !dbg !2780 ; [#uses=1 type=i8*] [debug line = 106:2]
  %60 = load i8* %59, align 1, !dbg !2780         ; [#uses=1 type=i8] [debug line = 106:2]
  %61 = zext i8 %60 to i64, !dbg !2780            ; [#uses=1 type=i64] [debug line = 106:2]
  %62 = getelementptr inbounds [256 x i8]* @_ZL5mul13, i32 0, i64 %61, !dbg !2780 ; [#uses=1 type=i8*] [debug line = 106:2]
  %63 = load i8* %62, align 1, !dbg !2780         ; [#uses=1 type=i8] [debug line = 106:2]
  %64 = zext i8 %63 to i32, !dbg !2780            ; [#uses=1 type=i32] [debug line = 106:2]
  %65 = xor i32 %57, %64, !dbg !2780              ; [#uses=1 type=i32] [debug line = 106:2]
  %66 = trunc i32 %65 to i8, !dbg !2780           ; [#uses=1 type=i8] [debug line = 106:2]
  %67 = getelementptr inbounds [16 x i8]* %tmp_state, i32 0, i64 1, !dbg !2780 ; [#uses=1 type=i8*] [debug line = 106:2]
  store i8 %66, i8* %67, align 1, !dbg !2780      ; [debug line = 106:2]
  %68 = load i8** %1, align 8, !dbg !2781         ; [#uses=1 type=i8*] [debug line = 108:2]
  %69 = getelementptr inbounds i8* %68, i64 0, !dbg !2781 ; [#uses=1 type=i8*] [debug line = 108:2]
  %70 = load i8* %69, align 1, !dbg !2781         ; [#uses=1 type=i8] [debug line = 108:2]
  %71 = zext i8 %70 to i64, !dbg !2781            ; [#uses=1 type=i64] [debug line = 108:2]
  %72 = getelementptr inbounds [256 x i8]* @_ZL5mul13, i32 0, i64 %71, !dbg !2781 ; [#uses=1 type=i8*] [debug line = 108:2]
  %73 = load i8* %72, align 1, !dbg !2781         ; [#uses=1 type=i8] [debug line = 108:2]
  %74 = zext i8 %73 to i32, !dbg !2781            ; [#uses=1 type=i32] [debug line = 108:2]
  %75 = load i8** %1, align 8, !dbg !2781         ; [#uses=1 type=i8*] [debug line = 108:2]
  %76 = getelementptr inbounds i8* %75, i64 1, !dbg !2781 ; [#uses=1 type=i8*] [debug line = 108:2]
  %77 = load i8* %76, align 1, !dbg !2781         ; [#uses=1 type=i8] [debug line = 108:2]
  %78 = zext i8 %77 to i64, !dbg !2781            ; [#uses=1 type=i64] [debug line = 108:2]
  %79 = getelementptr inbounds [256 x i8]* @_ZL5mul09, i32 0, i64 %78, !dbg !2781 ; [#uses=1 type=i8*] [debug line = 108:2]
  %80 = load i8* %79, align 1, !dbg !2781         ; [#uses=1 type=i8] [debug line = 108:2]
  %81 = zext i8 %80 to i32, !dbg !2781            ; [#uses=1 type=i32] [debug line = 108:2]
  %82 = xor i32 %74, %81, !dbg !2781              ; [#uses=1 type=i32] [debug line = 108:2]
  %83 = load i8** %1, align 8, !dbg !2781         ; [#uses=1 type=i8*] [debug line = 108:2]
  %84 = getelementptr inbounds i8* %83, i64 2, !dbg !2781 ; [#uses=1 type=i8*] [debug line = 108:2]
  %85 = load i8* %84, align 1, !dbg !2781         ; [#uses=1 type=i8] [debug line = 108:2]
  %86 = zext i8 %85 to i64, !dbg !2781            ; [#uses=1 type=i64] [debug line = 108:2]
  %87 = getelementptr inbounds [256 x i8]* @_ZL5mul14, i32 0, i64 %86, !dbg !2781 ; [#uses=1 type=i8*] [debug line = 108:2]
  %88 = load i8* %87, align 1, !dbg !2781         ; [#uses=1 type=i8] [debug line = 108:2]
  %89 = zext i8 %88 to i32, !dbg !2781            ; [#uses=1 type=i32] [debug line = 108:2]
  %90 = xor i32 %82, %89, !dbg !2781              ; [#uses=1 type=i32] [debug line = 108:2]
  %91 = load i8** %1, align 8, !dbg !2781         ; [#uses=1 type=i8*] [debug line = 108:2]
  %92 = getelementptr inbounds i8* %91, i64 3, !dbg !2781 ; [#uses=1 type=i8*] [debug line = 108:2]
  %93 = load i8* %92, align 1, !dbg !2781         ; [#uses=1 type=i8] [debug line = 108:2]
  %94 = zext i8 %93 to i64, !dbg !2781            ; [#uses=1 type=i64] [debug line = 108:2]
  %95 = getelementptr inbounds [256 x i8]* @_ZL5mul11, i32 0, i64 %94, !dbg !2781 ; [#uses=1 type=i8*] [debug line = 108:2]
  %96 = load i8* %95, align 1, !dbg !2781         ; [#uses=1 type=i8] [debug line = 108:2]
  %97 = zext i8 %96 to i32, !dbg !2781            ; [#uses=1 type=i32] [debug line = 108:2]
  %98 = xor i32 %90, %97, !dbg !2781              ; [#uses=1 type=i32] [debug line = 108:2]
  %99 = trunc i32 %98 to i8, !dbg !2781           ; [#uses=1 type=i8] [debug line = 108:2]
  %100 = getelementptr inbounds [16 x i8]* %tmp_state, i32 0, i64 2, !dbg !2781 ; [#uses=1 type=i8*] [debug line = 108:2]
  store i8 %99, i8* %100, align 1, !dbg !2781     ; [debug line = 108:2]
  %101 = load i8** %1, align 8, !dbg !2782        ; [#uses=1 type=i8*] [debug line = 110:2]
  %102 = getelementptr inbounds i8* %101, i64 0, !dbg !2782 ; [#uses=1 type=i8*] [debug line = 110:2]
  %103 = load i8* %102, align 1, !dbg !2782       ; [#uses=1 type=i8] [debug line = 110:2]
  %104 = zext i8 %103 to i64, !dbg !2782          ; [#uses=1 type=i64] [debug line = 110:2]
  %105 = getelementptr inbounds [256 x i8]* @_ZL5mul11, i32 0, i64 %104, !dbg !2782 ; [#uses=1 type=i8*] [debug line = 110:2]
  %106 = load i8* %105, align 1, !dbg !2782       ; [#uses=1 type=i8] [debug line = 110:2]
  %107 = zext i8 %106 to i32, !dbg !2782          ; [#uses=1 type=i32] [debug line = 110:2]
  %108 = load i8** %1, align 8, !dbg !2782        ; [#uses=1 type=i8*] [debug line = 110:2]
  %109 = getelementptr inbounds i8* %108, i64 1, !dbg !2782 ; [#uses=1 type=i8*] [debug line = 110:2]
  %110 = load i8* %109, align 1, !dbg !2782       ; [#uses=1 type=i8] [debug line = 110:2]
  %111 = zext i8 %110 to i64, !dbg !2782          ; [#uses=1 type=i64] [debug line = 110:2]
  %112 = getelementptr inbounds [256 x i8]* @_ZL5mul13, i32 0, i64 %111, !dbg !2782 ; [#uses=1 type=i8*] [debug line = 110:2]
  %113 = load i8* %112, align 1, !dbg !2782       ; [#uses=1 type=i8] [debug line = 110:2]
  %114 = zext i8 %113 to i32, !dbg !2782          ; [#uses=1 type=i32] [debug line = 110:2]
  %115 = xor i32 %107, %114, !dbg !2782           ; [#uses=1 type=i32] [debug line = 110:2]
  %116 = load i8** %1, align 8, !dbg !2782        ; [#uses=1 type=i8*] [debug line = 110:2]
  %117 = getelementptr inbounds i8* %116, i64 2, !dbg !2782 ; [#uses=1 type=i8*] [debug line = 110:2]
  %118 = load i8* %117, align 1, !dbg !2782       ; [#uses=1 type=i8] [debug line = 110:2]
  %119 = zext i8 %118 to i64, !dbg !2782          ; [#uses=1 type=i64] [debug line = 110:2]
  %120 = getelementptr inbounds [256 x i8]* @_ZL5mul09, i32 0, i64 %119, !dbg !2782 ; [#uses=1 type=i8*] [debug line = 110:2]
  %121 = load i8* %120, align 1, !dbg !2782       ; [#uses=1 type=i8] [debug line = 110:2]
  %122 = zext i8 %121 to i32, !dbg !2782          ; [#uses=1 type=i32] [debug line = 110:2]
  %123 = xor i32 %115, %122, !dbg !2782           ; [#uses=1 type=i32] [debug line = 110:2]
  %124 = load i8** %1, align 8, !dbg !2782        ; [#uses=1 type=i8*] [debug line = 110:2]
  %125 = getelementptr inbounds i8* %124, i64 3, !dbg !2782 ; [#uses=1 type=i8*] [debug line = 110:2]
  %126 = load i8* %125, align 1, !dbg !2782       ; [#uses=1 type=i8] [debug line = 110:2]
  %127 = zext i8 %126 to i64, !dbg !2782          ; [#uses=1 type=i64] [debug line = 110:2]
  %128 = getelementptr inbounds [256 x i8]* @_ZL5mul14, i32 0, i64 %127, !dbg !2782 ; [#uses=1 type=i8*] [debug line = 110:2]
  %129 = load i8* %128, align 1, !dbg !2782       ; [#uses=1 type=i8] [debug line = 110:2]
  %130 = zext i8 %129 to i32, !dbg !2782          ; [#uses=1 type=i32] [debug line = 110:2]
  %131 = xor i32 %123, %130, !dbg !2782           ; [#uses=1 type=i32] [debug line = 110:2]
  %132 = trunc i32 %131 to i8, !dbg !2782         ; [#uses=1 type=i8] [debug line = 110:2]
  %133 = getelementptr inbounds [16 x i8]* %tmp_state, i32 0, i64 3, !dbg !2782 ; [#uses=1 type=i8*] [debug line = 110:2]
  store i8 %132, i8* %133, align 1, !dbg !2782    ; [debug line = 110:2]
  %134 = load i8** %1, align 8, !dbg !2783        ; [#uses=1 type=i8*] [debug line = 113:2]
  %135 = getelementptr inbounds i8* %134, i64 4, !dbg !2783 ; [#uses=1 type=i8*] [debug line = 113:2]
  %136 = load i8* %135, align 1, !dbg !2783       ; [#uses=1 type=i8] [debug line = 113:2]
  %137 = zext i8 %136 to i64, !dbg !2783          ; [#uses=1 type=i64] [debug line = 113:2]
  %138 = getelementptr inbounds [256 x i8]* @_ZL5mul14, i32 0, i64 %137, !dbg !2783 ; [#uses=1 type=i8*] [debug line = 113:2]
  %139 = load i8* %138, align 1, !dbg !2783       ; [#uses=1 type=i8] [debug line = 113:2]
  %140 = zext i8 %139 to i32, !dbg !2783          ; [#uses=1 type=i32] [debug line = 113:2]
  %141 = load i8** %1, align 8, !dbg !2783        ; [#uses=1 type=i8*] [debug line = 113:2]
  %142 = getelementptr inbounds i8* %141, i64 5, !dbg !2783 ; [#uses=1 type=i8*] [debug line = 113:2]
  %143 = load i8* %142, align 1, !dbg !2783       ; [#uses=1 type=i8] [debug line = 113:2]
  %144 = zext i8 %143 to i64, !dbg !2783          ; [#uses=1 type=i64] [debug line = 113:2]
  %145 = getelementptr inbounds [256 x i8]* @_ZL5mul11, i32 0, i64 %144, !dbg !2783 ; [#uses=1 type=i8*] [debug line = 113:2]
  %146 = load i8* %145, align 1, !dbg !2783       ; [#uses=1 type=i8] [debug line = 113:2]
  %147 = zext i8 %146 to i32, !dbg !2783          ; [#uses=1 type=i32] [debug line = 113:2]
  %148 = xor i32 %140, %147, !dbg !2783           ; [#uses=1 type=i32] [debug line = 113:2]
  %149 = load i8** %1, align 8, !dbg !2783        ; [#uses=1 type=i8*] [debug line = 113:2]
  %150 = getelementptr inbounds i8* %149, i64 6, !dbg !2783 ; [#uses=1 type=i8*] [debug line = 113:2]
  %151 = load i8* %150, align 1, !dbg !2783       ; [#uses=1 type=i8] [debug line = 113:2]
  %152 = zext i8 %151 to i64, !dbg !2783          ; [#uses=1 type=i64] [debug line = 113:2]
  %153 = getelementptr inbounds [256 x i8]* @_ZL5mul13, i32 0, i64 %152, !dbg !2783 ; [#uses=1 type=i8*] [debug line = 113:2]
  %154 = load i8* %153, align 1, !dbg !2783       ; [#uses=1 type=i8] [debug line = 113:2]
  %155 = zext i8 %154 to i32, !dbg !2783          ; [#uses=1 type=i32] [debug line = 113:2]
  %156 = xor i32 %148, %155, !dbg !2783           ; [#uses=1 type=i32] [debug line = 113:2]
  %157 = load i8** %1, align 8, !dbg !2783        ; [#uses=1 type=i8*] [debug line = 113:2]
  %158 = getelementptr inbounds i8* %157, i64 7, !dbg !2783 ; [#uses=1 type=i8*] [debug line = 113:2]
  %159 = load i8* %158, align 1, !dbg !2783       ; [#uses=1 type=i8] [debug line = 113:2]
  %160 = zext i8 %159 to i64, !dbg !2783          ; [#uses=1 type=i64] [debug line = 113:2]
  %161 = getelementptr inbounds [256 x i8]* @_ZL5mul09, i32 0, i64 %160, !dbg !2783 ; [#uses=1 type=i8*] [debug line = 113:2]
  %162 = load i8* %161, align 1, !dbg !2783       ; [#uses=1 type=i8] [debug line = 113:2]
  %163 = zext i8 %162 to i32, !dbg !2783          ; [#uses=1 type=i32] [debug line = 113:2]
  %164 = xor i32 %156, %163, !dbg !2783           ; [#uses=1 type=i32] [debug line = 113:2]
  %165 = trunc i32 %164 to i8, !dbg !2783         ; [#uses=1 type=i8] [debug line = 113:2]
  %166 = getelementptr inbounds [16 x i8]* %tmp_state, i32 0, i64 4, !dbg !2783 ; [#uses=1 type=i8*] [debug line = 113:2]
  store i8 %165, i8* %166, align 1, !dbg !2783    ; [debug line = 113:2]
  %167 = load i8** %1, align 8, !dbg !2784        ; [#uses=1 type=i8*] [debug line = 115:2]
  %168 = getelementptr inbounds i8* %167, i64 4, !dbg !2784 ; [#uses=1 type=i8*] [debug line = 115:2]
  %169 = load i8* %168, align 1, !dbg !2784       ; [#uses=1 type=i8] [debug line = 115:2]
  %170 = zext i8 %169 to i64, !dbg !2784          ; [#uses=1 type=i64] [debug line = 115:2]
  %171 = getelementptr inbounds [256 x i8]* @_ZL5mul09, i32 0, i64 %170, !dbg !2784 ; [#uses=1 type=i8*] [debug line = 115:2]
  %172 = load i8* %171, align 1, !dbg !2784       ; [#uses=1 type=i8] [debug line = 115:2]
  %173 = zext i8 %172 to i32, !dbg !2784          ; [#uses=1 type=i32] [debug line = 115:2]
  %174 = load i8** %1, align 8, !dbg !2784        ; [#uses=1 type=i8*] [debug line = 115:2]
  %175 = getelementptr inbounds i8* %174, i64 5, !dbg !2784 ; [#uses=1 type=i8*] [debug line = 115:2]
  %176 = load i8* %175, align 1, !dbg !2784       ; [#uses=1 type=i8] [debug line = 115:2]
  %177 = zext i8 %176 to i64, !dbg !2784          ; [#uses=1 type=i64] [debug line = 115:2]
  %178 = getelementptr inbounds [256 x i8]* @_ZL5mul14, i32 0, i64 %177, !dbg !2784 ; [#uses=1 type=i8*] [debug line = 115:2]
  %179 = load i8* %178, align 1, !dbg !2784       ; [#uses=1 type=i8] [debug line = 115:2]
  %180 = zext i8 %179 to i32, !dbg !2784          ; [#uses=1 type=i32] [debug line = 115:2]
  %181 = xor i32 %173, %180, !dbg !2784           ; [#uses=1 type=i32] [debug line = 115:2]
  %182 = load i8** %1, align 8, !dbg !2784        ; [#uses=1 type=i8*] [debug line = 115:2]
  %183 = getelementptr inbounds i8* %182, i64 6, !dbg !2784 ; [#uses=1 type=i8*] [debug line = 115:2]
  %184 = load i8* %183, align 1, !dbg !2784       ; [#uses=1 type=i8] [debug line = 115:2]
  %185 = zext i8 %184 to i64, !dbg !2784          ; [#uses=1 type=i64] [debug line = 115:2]
  %186 = getelementptr inbounds [256 x i8]* @_ZL5mul11, i32 0, i64 %185, !dbg !2784 ; [#uses=1 type=i8*] [debug line = 115:2]
  %187 = load i8* %186, align 1, !dbg !2784       ; [#uses=1 type=i8] [debug line = 115:2]
  %188 = zext i8 %187 to i32, !dbg !2784          ; [#uses=1 type=i32] [debug line = 115:2]
  %189 = xor i32 %181, %188, !dbg !2784           ; [#uses=1 type=i32] [debug line = 115:2]
  %190 = load i8** %1, align 8, !dbg !2784        ; [#uses=1 type=i8*] [debug line = 115:2]
  %191 = getelementptr inbounds i8* %190, i64 7, !dbg !2784 ; [#uses=1 type=i8*] [debug line = 115:2]
  %192 = load i8* %191, align 1, !dbg !2784       ; [#uses=1 type=i8] [debug line = 115:2]
  %193 = zext i8 %192 to i64, !dbg !2784          ; [#uses=1 type=i64] [debug line = 115:2]
  %194 = getelementptr inbounds [256 x i8]* @_ZL5mul13, i32 0, i64 %193, !dbg !2784 ; [#uses=1 type=i8*] [debug line = 115:2]
  %195 = load i8* %194, align 1, !dbg !2784       ; [#uses=1 type=i8] [debug line = 115:2]
  %196 = zext i8 %195 to i32, !dbg !2784          ; [#uses=1 type=i32] [debug line = 115:2]
  %197 = xor i32 %189, %196, !dbg !2784           ; [#uses=1 type=i32] [debug line = 115:2]
  %198 = trunc i32 %197 to i8, !dbg !2784         ; [#uses=1 type=i8] [debug line = 115:2]
  %199 = getelementptr inbounds [16 x i8]* %tmp_state, i32 0, i64 5, !dbg !2784 ; [#uses=1 type=i8*] [debug line = 115:2]
  store i8 %198, i8* %199, align 1, !dbg !2784    ; [debug line = 115:2]
  %200 = load i8** %1, align 8, !dbg !2785        ; [#uses=1 type=i8*] [debug line = 117:2]
  %201 = getelementptr inbounds i8* %200, i64 4, !dbg !2785 ; [#uses=1 type=i8*] [debug line = 117:2]
  %202 = load i8* %201, align 1, !dbg !2785       ; [#uses=1 type=i8] [debug line = 117:2]
  %203 = zext i8 %202 to i64, !dbg !2785          ; [#uses=1 type=i64] [debug line = 117:2]
  %204 = getelementptr inbounds [256 x i8]* @_ZL5mul13, i32 0, i64 %203, !dbg !2785 ; [#uses=1 type=i8*] [debug line = 117:2]
  %205 = load i8* %204, align 1, !dbg !2785       ; [#uses=1 type=i8] [debug line = 117:2]
  %206 = zext i8 %205 to i32, !dbg !2785          ; [#uses=1 type=i32] [debug line = 117:2]
  %207 = load i8** %1, align 8, !dbg !2785        ; [#uses=1 type=i8*] [debug line = 117:2]
  %208 = getelementptr inbounds i8* %207, i64 5, !dbg !2785 ; [#uses=1 type=i8*] [debug line = 117:2]
  %209 = load i8* %208, align 1, !dbg !2785       ; [#uses=1 type=i8] [debug line = 117:2]
  %210 = zext i8 %209 to i64, !dbg !2785          ; [#uses=1 type=i64] [debug line = 117:2]
  %211 = getelementptr inbounds [256 x i8]* @_ZL5mul09, i32 0, i64 %210, !dbg !2785 ; [#uses=1 type=i8*] [debug line = 117:2]
  %212 = load i8* %211, align 1, !dbg !2785       ; [#uses=1 type=i8] [debug line = 117:2]
  %213 = zext i8 %212 to i32, !dbg !2785          ; [#uses=1 type=i32] [debug line = 117:2]
  %214 = xor i32 %206, %213, !dbg !2785           ; [#uses=1 type=i32] [debug line = 117:2]
  %215 = load i8** %1, align 8, !dbg !2785        ; [#uses=1 type=i8*] [debug line = 117:2]
  %216 = getelementptr inbounds i8* %215, i64 6, !dbg !2785 ; [#uses=1 type=i8*] [debug line = 117:2]
  %217 = load i8* %216, align 1, !dbg !2785       ; [#uses=1 type=i8] [debug line = 117:2]
  %218 = zext i8 %217 to i64, !dbg !2785          ; [#uses=1 type=i64] [debug line = 117:2]
  %219 = getelementptr inbounds [256 x i8]* @_ZL5mul14, i32 0, i64 %218, !dbg !2785 ; [#uses=1 type=i8*] [debug line = 117:2]
  %220 = load i8* %219, align 1, !dbg !2785       ; [#uses=1 type=i8] [debug line = 117:2]
  %221 = zext i8 %220 to i32, !dbg !2785          ; [#uses=1 type=i32] [debug line = 117:2]
  %222 = xor i32 %214, %221, !dbg !2785           ; [#uses=1 type=i32] [debug line = 117:2]
  %223 = load i8** %1, align 8, !dbg !2785        ; [#uses=1 type=i8*] [debug line = 117:2]
  %224 = getelementptr inbounds i8* %223, i64 7, !dbg !2785 ; [#uses=1 type=i8*] [debug line = 117:2]
  %225 = load i8* %224, align 1, !dbg !2785       ; [#uses=1 type=i8] [debug line = 117:2]
  %226 = zext i8 %225 to i64, !dbg !2785          ; [#uses=1 type=i64] [debug line = 117:2]
  %227 = getelementptr inbounds [256 x i8]* @_ZL5mul11, i32 0, i64 %226, !dbg !2785 ; [#uses=1 type=i8*] [debug line = 117:2]
  %228 = load i8* %227, align 1, !dbg !2785       ; [#uses=1 type=i8] [debug line = 117:2]
  %229 = zext i8 %228 to i32, !dbg !2785          ; [#uses=1 type=i32] [debug line = 117:2]
  %230 = xor i32 %222, %229, !dbg !2785           ; [#uses=1 type=i32] [debug line = 117:2]
  %231 = trunc i32 %230 to i8, !dbg !2785         ; [#uses=1 type=i8] [debug line = 117:2]
  %232 = getelementptr inbounds [16 x i8]* %tmp_state, i32 0, i64 6, !dbg !2785 ; [#uses=1 type=i8*] [debug line = 117:2]
  store i8 %231, i8* %232, align 1, !dbg !2785    ; [debug line = 117:2]
  %233 = load i8** %1, align 8, !dbg !2786        ; [#uses=1 type=i8*] [debug line = 119:2]
  %234 = getelementptr inbounds i8* %233, i64 4, !dbg !2786 ; [#uses=1 type=i8*] [debug line = 119:2]
  %235 = load i8* %234, align 1, !dbg !2786       ; [#uses=1 type=i8] [debug line = 119:2]
  %236 = zext i8 %235 to i64, !dbg !2786          ; [#uses=1 type=i64] [debug line = 119:2]
  %237 = getelementptr inbounds [256 x i8]* @_ZL5mul11, i32 0, i64 %236, !dbg !2786 ; [#uses=1 type=i8*] [debug line = 119:2]
  %238 = load i8* %237, align 1, !dbg !2786       ; [#uses=1 type=i8] [debug line = 119:2]
  %239 = zext i8 %238 to i32, !dbg !2786          ; [#uses=1 type=i32] [debug line = 119:2]
  %240 = load i8** %1, align 8, !dbg !2786        ; [#uses=1 type=i8*] [debug line = 119:2]
  %241 = getelementptr inbounds i8* %240, i64 5, !dbg !2786 ; [#uses=1 type=i8*] [debug line = 119:2]
  %242 = load i8* %241, align 1, !dbg !2786       ; [#uses=1 type=i8] [debug line = 119:2]
  %243 = zext i8 %242 to i64, !dbg !2786          ; [#uses=1 type=i64] [debug line = 119:2]
  %244 = getelementptr inbounds [256 x i8]* @_ZL5mul13, i32 0, i64 %243, !dbg !2786 ; [#uses=1 type=i8*] [debug line = 119:2]
  %245 = load i8* %244, align 1, !dbg !2786       ; [#uses=1 type=i8] [debug line = 119:2]
  %246 = zext i8 %245 to i32, !dbg !2786          ; [#uses=1 type=i32] [debug line = 119:2]
  %247 = xor i32 %239, %246, !dbg !2786           ; [#uses=1 type=i32] [debug line = 119:2]
  %248 = load i8** %1, align 8, !dbg !2786        ; [#uses=1 type=i8*] [debug line = 119:2]
  %249 = getelementptr inbounds i8* %248, i64 6, !dbg !2786 ; [#uses=1 type=i8*] [debug line = 119:2]
  %250 = load i8* %249, align 1, !dbg !2786       ; [#uses=1 type=i8] [debug line = 119:2]
  %251 = zext i8 %250 to i64, !dbg !2786          ; [#uses=1 type=i64] [debug line = 119:2]
  %252 = getelementptr inbounds [256 x i8]* @_ZL5mul09, i32 0, i64 %251, !dbg !2786 ; [#uses=1 type=i8*] [debug line = 119:2]
  %253 = load i8* %252, align 1, !dbg !2786       ; [#uses=1 type=i8] [debug line = 119:2]
  %254 = zext i8 %253 to i32, !dbg !2786          ; [#uses=1 type=i32] [debug line = 119:2]
  %255 = xor i32 %247, %254, !dbg !2786           ; [#uses=1 type=i32] [debug line = 119:2]
  %256 = load i8** %1, align 8, !dbg !2786        ; [#uses=1 type=i8*] [debug line = 119:2]
  %257 = getelementptr inbounds i8* %256, i64 7, !dbg !2786 ; [#uses=1 type=i8*] [debug line = 119:2]
  %258 = load i8* %257, align 1, !dbg !2786       ; [#uses=1 type=i8] [debug line = 119:2]
  %259 = zext i8 %258 to i64, !dbg !2786          ; [#uses=1 type=i64] [debug line = 119:2]
  %260 = getelementptr inbounds [256 x i8]* @_ZL5mul14, i32 0, i64 %259, !dbg !2786 ; [#uses=1 type=i8*] [debug line = 119:2]
  %261 = load i8* %260, align 1, !dbg !2786       ; [#uses=1 type=i8] [debug line = 119:2]
  %262 = zext i8 %261 to i32, !dbg !2786          ; [#uses=1 type=i32] [debug line = 119:2]
  %263 = xor i32 %255, %262, !dbg !2786           ; [#uses=1 type=i32] [debug line = 119:2]
  %264 = trunc i32 %263 to i8, !dbg !2786         ; [#uses=1 type=i8] [debug line = 119:2]
  %265 = getelementptr inbounds [16 x i8]* %tmp_state, i32 0, i64 7, !dbg !2786 ; [#uses=1 type=i8*] [debug line = 119:2]
  store i8 %264, i8* %265, align 1, !dbg !2786    ; [debug line = 119:2]
  %266 = load i8** %1, align 8, !dbg !2787        ; [#uses=1 type=i8*] [debug line = 122:2]
  %267 = getelementptr inbounds i8* %266, i64 8, !dbg !2787 ; [#uses=1 type=i8*] [debug line = 122:2]
  %268 = load i8* %267, align 1, !dbg !2787       ; [#uses=1 type=i8] [debug line = 122:2]
  %269 = zext i8 %268 to i64, !dbg !2787          ; [#uses=1 type=i64] [debug line = 122:2]
  %270 = getelementptr inbounds [256 x i8]* @_ZL5mul14, i32 0, i64 %269, !dbg !2787 ; [#uses=1 type=i8*] [debug line = 122:2]
  %271 = load i8* %270, align 1, !dbg !2787       ; [#uses=1 type=i8] [debug line = 122:2]
  %272 = zext i8 %271 to i32, !dbg !2787          ; [#uses=1 type=i32] [debug line = 122:2]
  %273 = load i8** %1, align 8, !dbg !2787        ; [#uses=1 type=i8*] [debug line = 122:2]
  %274 = getelementptr inbounds i8* %273, i64 9, !dbg !2787 ; [#uses=1 type=i8*] [debug line = 122:2]
  %275 = load i8* %274, align 1, !dbg !2787       ; [#uses=1 type=i8] [debug line = 122:2]
  %276 = zext i8 %275 to i64, !dbg !2787          ; [#uses=1 type=i64] [debug line = 122:2]
  %277 = getelementptr inbounds [256 x i8]* @_ZL5mul11, i32 0, i64 %276, !dbg !2787 ; [#uses=1 type=i8*] [debug line = 122:2]
  %278 = load i8* %277, align 1, !dbg !2787       ; [#uses=1 type=i8] [debug line = 122:2]
  %279 = zext i8 %278 to i32, !dbg !2787          ; [#uses=1 type=i32] [debug line = 122:2]
  %280 = xor i32 %272, %279, !dbg !2787           ; [#uses=1 type=i32] [debug line = 122:2]
  %281 = load i8** %1, align 8, !dbg !2787        ; [#uses=1 type=i8*] [debug line = 122:2]
  %282 = getelementptr inbounds i8* %281, i64 10, !dbg !2787 ; [#uses=1 type=i8*] [debug line = 122:2]
  %283 = load i8* %282, align 1, !dbg !2787       ; [#uses=1 type=i8] [debug line = 122:2]
  %284 = zext i8 %283 to i64, !dbg !2787          ; [#uses=1 type=i64] [debug line = 122:2]
  %285 = getelementptr inbounds [256 x i8]* @_ZL5mul13, i32 0, i64 %284, !dbg !2787 ; [#uses=1 type=i8*] [debug line = 122:2]
  %286 = load i8* %285, align 1, !dbg !2787       ; [#uses=1 type=i8] [debug line = 122:2]
  %287 = zext i8 %286 to i32, !dbg !2787          ; [#uses=1 type=i32] [debug line = 122:2]
  %288 = xor i32 %280, %287, !dbg !2787           ; [#uses=1 type=i32] [debug line = 122:2]
  %289 = load i8** %1, align 8, !dbg !2787        ; [#uses=1 type=i8*] [debug line = 122:2]
  %290 = getelementptr inbounds i8* %289, i64 11, !dbg !2787 ; [#uses=1 type=i8*] [debug line = 122:2]
  %291 = load i8* %290, align 1, !dbg !2787       ; [#uses=1 type=i8] [debug line = 122:2]
  %292 = zext i8 %291 to i64, !dbg !2787          ; [#uses=1 type=i64] [debug line = 122:2]
  %293 = getelementptr inbounds [256 x i8]* @_ZL5mul09, i32 0, i64 %292, !dbg !2787 ; [#uses=1 type=i8*] [debug line = 122:2]
  %294 = load i8* %293, align 1, !dbg !2787       ; [#uses=1 type=i8] [debug line = 122:2]
  %295 = zext i8 %294 to i32, !dbg !2787          ; [#uses=1 type=i32] [debug line = 122:2]
  %296 = xor i32 %288, %295, !dbg !2787           ; [#uses=1 type=i32] [debug line = 122:2]
  %297 = trunc i32 %296 to i8, !dbg !2787         ; [#uses=1 type=i8] [debug line = 122:2]
  %298 = getelementptr inbounds [16 x i8]* %tmp_state, i32 0, i64 8, !dbg !2787 ; [#uses=1 type=i8*] [debug line = 122:2]
  store i8 %297, i8* %298, align 1, !dbg !2787    ; [debug line = 122:2]
  %299 = load i8** %1, align 8, !dbg !2788        ; [#uses=1 type=i8*] [debug line = 124:2]
  %300 = getelementptr inbounds i8* %299, i64 8, !dbg !2788 ; [#uses=1 type=i8*] [debug line = 124:2]
  %301 = load i8* %300, align 1, !dbg !2788       ; [#uses=1 type=i8] [debug line = 124:2]
  %302 = zext i8 %301 to i64, !dbg !2788          ; [#uses=1 type=i64] [debug line = 124:2]
  %303 = getelementptr inbounds [256 x i8]* @_ZL5mul09, i32 0, i64 %302, !dbg !2788 ; [#uses=1 type=i8*] [debug line = 124:2]
  %304 = load i8* %303, align 1, !dbg !2788       ; [#uses=1 type=i8] [debug line = 124:2]
  %305 = zext i8 %304 to i32, !dbg !2788          ; [#uses=1 type=i32] [debug line = 124:2]
  %306 = load i8** %1, align 8, !dbg !2788        ; [#uses=1 type=i8*] [debug line = 124:2]
  %307 = getelementptr inbounds i8* %306, i64 9, !dbg !2788 ; [#uses=1 type=i8*] [debug line = 124:2]
  %308 = load i8* %307, align 1, !dbg !2788       ; [#uses=1 type=i8] [debug line = 124:2]
  %309 = zext i8 %308 to i64, !dbg !2788          ; [#uses=1 type=i64] [debug line = 124:2]
  %310 = getelementptr inbounds [256 x i8]* @_ZL5mul14, i32 0, i64 %309, !dbg !2788 ; [#uses=1 type=i8*] [debug line = 124:2]
  %311 = load i8* %310, align 1, !dbg !2788       ; [#uses=1 type=i8] [debug line = 124:2]
  %312 = zext i8 %311 to i32, !dbg !2788          ; [#uses=1 type=i32] [debug line = 124:2]
  %313 = xor i32 %305, %312, !dbg !2788           ; [#uses=1 type=i32] [debug line = 124:2]
  %314 = load i8** %1, align 8, !dbg !2788        ; [#uses=1 type=i8*] [debug line = 124:2]
  %315 = getelementptr inbounds i8* %314, i64 10, !dbg !2788 ; [#uses=1 type=i8*] [debug line = 124:2]
  %316 = load i8* %315, align 1, !dbg !2788       ; [#uses=1 type=i8] [debug line = 124:2]
  %317 = zext i8 %316 to i64, !dbg !2788          ; [#uses=1 type=i64] [debug line = 124:2]
  %318 = getelementptr inbounds [256 x i8]* @_ZL5mul11, i32 0, i64 %317, !dbg !2788 ; [#uses=1 type=i8*] [debug line = 124:2]
  %319 = load i8* %318, align 1, !dbg !2788       ; [#uses=1 type=i8] [debug line = 124:2]
  %320 = zext i8 %319 to i32, !dbg !2788          ; [#uses=1 type=i32] [debug line = 124:2]
  %321 = xor i32 %313, %320, !dbg !2788           ; [#uses=1 type=i32] [debug line = 124:2]
  %322 = load i8** %1, align 8, !dbg !2788        ; [#uses=1 type=i8*] [debug line = 124:2]
  %323 = getelementptr inbounds i8* %322, i64 11, !dbg !2788 ; [#uses=1 type=i8*] [debug line = 124:2]
  %324 = load i8* %323, align 1, !dbg !2788       ; [#uses=1 type=i8] [debug line = 124:2]
  %325 = zext i8 %324 to i64, !dbg !2788          ; [#uses=1 type=i64] [debug line = 124:2]
  %326 = getelementptr inbounds [256 x i8]* @_ZL5mul13, i32 0, i64 %325, !dbg !2788 ; [#uses=1 type=i8*] [debug line = 124:2]
  %327 = load i8* %326, align 1, !dbg !2788       ; [#uses=1 type=i8] [debug line = 124:2]
  %328 = zext i8 %327 to i32, !dbg !2788          ; [#uses=1 type=i32] [debug line = 124:2]
  %329 = xor i32 %321, %328, !dbg !2788           ; [#uses=1 type=i32] [debug line = 124:2]
  %330 = trunc i32 %329 to i8, !dbg !2788         ; [#uses=1 type=i8] [debug line = 124:2]
  %331 = getelementptr inbounds [16 x i8]* %tmp_state, i32 0, i64 9, !dbg !2788 ; [#uses=1 type=i8*] [debug line = 124:2]
  store i8 %330, i8* %331, align 1, !dbg !2788    ; [debug line = 124:2]
  %332 = load i8** %1, align 8, !dbg !2789        ; [#uses=1 type=i8*] [debug line = 126:2]
  %333 = getelementptr inbounds i8* %332, i64 8, !dbg !2789 ; [#uses=1 type=i8*] [debug line = 126:2]
  %334 = load i8* %333, align 1, !dbg !2789       ; [#uses=1 type=i8] [debug line = 126:2]
  %335 = zext i8 %334 to i64, !dbg !2789          ; [#uses=1 type=i64] [debug line = 126:2]
  %336 = getelementptr inbounds [256 x i8]* @_ZL5mul13, i32 0, i64 %335, !dbg !2789 ; [#uses=1 type=i8*] [debug line = 126:2]
  %337 = load i8* %336, align 1, !dbg !2789       ; [#uses=1 type=i8] [debug line = 126:2]
  %338 = zext i8 %337 to i32, !dbg !2789          ; [#uses=1 type=i32] [debug line = 126:2]
  %339 = load i8** %1, align 8, !dbg !2789        ; [#uses=1 type=i8*] [debug line = 126:2]
  %340 = getelementptr inbounds i8* %339, i64 9, !dbg !2789 ; [#uses=1 type=i8*] [debug line = 126:2]
  %341 = load i8* %340, align 1, !dbg !2789       ; [#uses=1 type=i8] [debug line = 126:2]
  %342 = zext i8 %341 to i64, !dbg !2789          ; [#uses=1 type=i64] [debug line = 126:2]
  %343 = getelementptr inbounds [256 x i8]* @_ZL5mul09, i32 0, i64 %342, !dbg !2789 ; [#uses=1 type=i8*] [debug line = 126:2]
  %344 = load i8* %343, align 1, !dbg !2789       ; [#uses=1 type=i8] [debug line = 126:2]
  %345 = zext i8 %344 to i32, !dbg !2789          ; [#uses=1 type=i32] [debug line = 126:2]
  %346 = xor i32 %338, %345, !dbg !2789           ; [#uses=1 type=i32] [debug line = 126:2]
  %347 = load i8** %1, align 8, !dbg !2789        ; [#uses=1 type=i8*] [debug line = 126:2]
  %348 = getelementptr inbounds i8* %347, i64 10, !dbg !2789 ; [#uses=1 type=i8*] [debug line = 126:2]
  %349 = load i8* %348, align 1, !dbg !2789       ; [#uses=1 type=i8] [debug line = 126:2]
  %350 = zext i8 %349 to i64, !dbg !2789          ; [#uses=1 type=i64] [debug line = 126:2]
  %351 = getelementptr inbounds [256 x i8]* @_ZL5mul14, i32 0, i64 %350, !dbg !2789 ; [#uses=1 type=i8*] [debug line = 126:2]
  %352 = load i8* %351, align 1, !dbg !2789       ; [#uses=1 type=i8] [debug line = 126:2]
  %353 = zext i8 %352 to i32, !dbg !2789          ; [#uses=1 type=i32] [debug line = 126:2]
  %354 = xor i32 %346, %353, !dbg !2789           ; [#uses=1 type=i32] [debug line = 126:2]
  %355 = load i8** %1, align 8, !dbg !2789        ; [#uses=1 type=i8*] [debug line = 126:2]
  %356 = getelementptr inbounds i8* %355, i64 11, !dbg !2789 ; [#uses=1 type=i8*] [debug line = 126:2]
  %357 = load i8* %356, align 1, !dbg !2789       ; [#uses=1 type=i8] [debug line = 126:2]
  %358 = zext i8 %357 to i64, !dbg !2789          ; [#uses=1 type=i64] [debug line = 126:2]
  %359 = getelementptr inbounds [256 x i8]* @_ZL5mul11, i32 0, i64 %358, !dbg !2789 ; [#uses=1 type=i8*] [debug line = 126:2]
  %360 = load i8* %359, align 1, !dbg !2789       ; [#uses=1 type=i8] [debug line = 126:2]
  %361 = zext i8 %360 to i32, !dbg !2789          ; [#uses=1 type=i32] [debug line = 126:2]
  %362 = xor i32 %354, %361, !dbg !2789           ; [#uses=1 type=i32] [debug line = 126:2]
  %363 = trunc i32 %362 to i8, !dbg !2789         ; [#uses=1 type=i8] [debug line = 126:2]
  %364 = getelementptr inbounds [16 x i8]* %tmp_state, i32 0, i64 10, !dbg !2789 ; [#uses=1 type=i8*] [debug line = 126:2]
  store i8 %363, i8* %364, align 1, !dbg !2789    ; [debug line = 126:2]
  %365 = load i8** %1, align 8, !dbg !2790        ; [#uses=1 type=i8*] [debug line = 128:2]
  %366 = getelementptr inbounds i8* %365, i64 8, !dbg !2790 ; [#uses=1 type=i8*] [debug line = 128:2]
  %367 = load i8* %366, align 1, !dbg !2790       ; [#uses=1 type=i8] [debug line = 128:2]
  %368 = zext i8 %367 to i64, !dbg !2790          ; [#uses=1 type=i64] [debug line = 128:2]
  %369 = getelementptr inbounds [256 x i8]* @_ZL5mul11, i32 0, i64 %368, !dbg !2790 ; [#uses=1 type=i8*] [debug line = 128:2]
  %370 = load i8* %369, align 1, !dbg !2790       ; [#uses=1 type=i8] [debug line = 128:2]
  %371 = zext i8 %370 to i32, !dbg !2790          ; [#uses=1 type=i32] [debug line = 128:2]
  %372 = load i8** %1, align 8, !dbg !2790        ; [#uses=1 type=i8*] [debug line = 128:2]
  %373 = getelementptr inbounds i8* %372, i64 9, !dbg !2790 ; [#uses=1 type=i8*] [debug line = 128:2]
  %374 = load i8* %373, align 1, !dbg !2790       ; [#uses=1 type=i8] [debug line = 128:2]
  %375 = zext i8 %374 to i64, !dbg !2790          ; [#uses=1 type=i64] [debug line = 128:2]
  %376 = getelementptr inbounds [256 x i8]* @_ZL5mul13, i32 0, i64 %375, !dbg !2790 ; [#uses=1 type=i8*] [debug line = 128:2]
  %377 = load i8* %376, align 1, !dbg !2790       ; [#uses=1 type=i8] [debug line = 128:2]
  %378 = zext i8 %377 to i32, !dbg !2790          ; [#uses=1 type=i32] [debug line = 128:2]
  %379 = xor i32 %371, %378, !dbg !2790           ; [#uses=1 type=i32] [debug line = 128:2]
  %380 = load i8** %1, align 8, !dbg !2790        ; [#uses=1 type=i8*] [debug line = 128:2]
  %381 = getelementptr inbounds i8* %380, i64 10, !dbg !2790 ; [#uses=1 type=i8*] [debug line = 128:2]
  %382 = load i8* %381, align 1, !dbg !2790       ; [#uses=1 type=i8] [debug line = 128:2]
  %383 = zext i8 %382 to i64, !dbg !2790          ; [#uses=1 type=i64] [debug line = 128:2]
  %384 = getelementptr inbounds [256 x i8]* @_ZL5mul09, i32 0, i64 %383, !dbg !2790 ; [#uses=1 type=i8*] [debug line = 128:2]
  %385 = load i8* %384, align 1, !dbg !2790       ; [#uses=1 type=i8] [debug line = 128:2]
  %386 = zext i8 %385 to i32, !dbg !2790          ; [#uses=1 type=i32] [debug line = 128:2]
  %387 = xor i32 %379, %386, !dbg !2790           ; [#uses=1 type=i32] [debug line = 128:2]
  %388 = load i8** %1, align 8, !dbg !2790        ; [#uses=1 type=i8*] [debug line = 128:2]
  %389 = getelementptr inbounds i8* %388, i64 11, !dbg !2790 ; [#uses=1 type=i8*] [debug line = 128:2]
  %390 = load i8* %389, align 1, !dbg !2790       ; [#uses=1 type=i8] [debug line = 128:2]
  %391 = zext i8 %390 to i64, !dbg !2790          ; [#uses=1 type=i64] [debug line = 128:2]
  %392 = getelementptr inbounds [256 x i8]* @_ZL5mul14, i32 0, i64 %391, !dbg !2790 ; [#uses=1 type=i8*] [debug line = 128:2]
  %393 = load i8* %392, align 1, !dbg !2790       ; [#uses=1 type=i8] [debug line = 128:2]
  %394 = zext i8 %393 to i32, !dbg !2790          ; [#uses=1 type=i32] [debug line = 128:2]
  %395 = xor i32 %387, %394, !dbg !2790           ; [#uses=1 type=i32] [debug line = 128:2]
  %396 = trunc i32 %395 to i8, !dbg !2790         ; [#uses=1 type=i8] [debug line = 128:2]
  %397 = getelementptr inbounds [16 x i8]* %tmp_state, i32 0, i64 11, !dbg !2790 ; [#uses=1 type=i8*] [debug line = 128:2]
  store i8 %396, i8* %397, align 1, !dbg !2790    ; [debug line = 128:2]
  %398 = load i8** %1, align 8, !dbg !2791        ; [#uses=1 type=i8*] [debug line = 131:2]
  %399 = getelementptr inbounds i8* %398, i64 12, !dbg !2791 ; [#uses=1 type=i8*] [debug line = 131:2]
  %400 = load i8* %399, align 1, !dbg !2791       ; [#uses=1 type=i8] [debug line = 131:2]
  %401 = zext i8 %400 to i64, !dbg !2791          ; [#uses=1 type=i64] [debug line = 131:2]
  %402 = getelementptr inbounds [256 x i8]* @_ZL5mul14, i32 0, i64 %401, !dbg !2791 ; [#uses=1 type=i8*] [debug line = 131:2]
  %403 = load i8* %402, align 1, !dbg !2791       ; [#uses=1 type=i8] [debug line = 131:2]
  %404 = zext i8 %403 to i32, !dbg !2791          ; [#uses=1 type=i32] [debug line = 131:2]
  %405 = load i8** %1, align 8, !dbg !2791        ; [#uses=1 type=i8*] [debug line = 131:2]
  %406 = getelementptr inbounds i8* %405, i64 13, !dbg !2791 ; [#uses=1 type=i8*] [debug line = 131:2]
  %407 = load i8* %406, align 1, !dbg !2791       ; [#uses=1 type=i8] [debug line = 131:2]
  %408 = zext i8 %407 to i64, !dbg !2791          ; [#uses=1 type=i64] [debug line = 131:2]
  %409 = getelementptr inbounds [256 x i8]* @_ZL5mul11, i32 0, i64 %408, !dbg !2791 ; [#uses=1 type=i8*] [debug line = 131:2]
  %410 = load i8* %409, align 1, !dbg !2791       ; [#uses=1 type=i8] [debug line = 131:2]
  %411 = zext i8 %410 to i32, !dbg !2791          ; [#uses=1 type=i32] [debug line = 131:2]
  %412 = xor i32 %404, %411, !dbg !2791           ; [#uses=1 type=i32] [debug line = 131:2]
  %413 = load i8** %1, align 8, !dbg !2791        ; [#uses=1 type=i8*] [debug line = 131:2]
  %414 = getelementptr inbounds i8* %413, i64 14, !dbg !2791 ; [#uses=1 type=i8*] [debug line = 131:2]
  %415 = load i8* %414, align 1, !dbg !2791       ; [#uses=1 type=i8] [debug line = 131:2]
  %416 = zext i8 %415 to i64, !dbg !2791          ; [#uses=1 type=i64] [debug line = 131:2]
  %417 = getelementptr inbounds [256 x i8]* @_ZL5mul13, i32 0, i64 %416, !dbg !2791 ; [#uses=1 type=i8*] [debug line = 131:2]
  %418 = load i8* %417, align 1, !dbg !2791       ; [#uses=1 type=i8] [debug line = 131:2]
  %419 = zext i8 %418 to i32, !dbg !2791          ; [#uses=1 type=i32] [debug line = 131:2]
  %420 = xor i32 %412, %419, !dbg !2791           ; [#uses=1 type=i32] [debug line = 131:2]
  %421 = load i8** %1, align 8, !dbg !2791        ; [#uses=1 type=i8*] [debug line = 131:2]
  %422 = getelementptr inbounds i8* %421, i64 15, !dbg !2791 ; [#uses=1 type=i8*] [debug line = 131:2]
  %423 = load i8* %422, align 1, !dbg !2791       ; [#uses=1 type=i8] [debug line = 131:2]
  %424 = zext i8 %423 to i64, !dbg !2791          ; [#uses=1 type=i64] [debug line = 131:2]
  %425 = getelementptr inbounds [256 x i8]* @_ZL5mul09, i32 0, i64 %424, !dbg !2791 ; [#uses=1 type=i8*] [debug line = 131:2]
  %426 = load i8* %425, align 1, !dbg !2791       ; [#uses=1 type=i8] [debug line = 131:2]
  %427 = zext i8 %426 to i32, !dbg !2791          ; [#uses=1 type=i32] [debug line = 131:2]
  %428 = xor i32 %420, %427, !dbg !2791           ; [#uses=1 type=i32] [debug line = 131:2]
  %429 = trunc i32 %428 to i8, !dbg !2791         ; [#uses=1 type=i8] [debug line = 131:2]
  %430 = getelementptr inbounds [16 x i8]* %tmp_state, i32 0, i64 12, !dbg !2791 ; [#uses=1 type=i8*] [debug line = 131:2]
  store i8 %429, i8* %430, align 1, !dbg !2791    ; [debug line = 131:2]
  %431 = load i8** %1, align 8, !dbg !2792        ; [#uses=1 type=i8*] [debug line = 133:2]
  %432 = getelementptr inbounds i8* %431, i64 12, !dbg !2792 ; [#uses=1 type=i8*] [debug line = 133:2]
  %433 = load i8* %432, align 1, !dbg !2792       ; [#uses=1 type=i8] [debug line = 133:2]
  %434 = zext i8 %433 to i64, !dbg !2792          ; [#uses=1 type=i64] [debug line = 133:2]
  %435 = getelementptr inbounds [256 x i8]* @_ZL5mul09, i32 0, i64 %434, !dbg !2792 ; [#uses=1 type=i8*] [debug line = 133:2]
  %436 = load i8* %435, align 1, !dbg !2792       ; [#uses=1 type=i8] [debug line = 133:2]
  %437 = zext i8 %436 to i32, !dbg !2792          ; [#uses=1 type=i32] [debug line = 133:2]
  %438 = load i8** %1, align 8, !dbg !2792        ; [#uses=1 type=i8*] [debug line = 133:2]
  %439 = getelementptr inbounds i8* %438, i64 13, !dbg !2792 ; [#uses=1 type=i8*] [debug line = 133:2]
  %440 = load i8* %439, align 1, !dbg !2792       ; [#uses=1 type=i8] [debug line = 133:2]
  %441 = zext i8 %440 to i64, !dbg !2792          ; [#uses=1 type=i64] [debug line = 133:2]
  %442 = getelementptr inbounds [256 x i8]* @_ZL5mul14, i32 0, i64 %441, !dbg !2792 ; [#uses=1 type=i8*] [debug line = 133:2]
  %443 = load i8* %442, align 1, !dbg !2792       ; [#uses=1 type=i8] [debug line = 133:2]
  %444 = zext i8 %443 to i32, !dbg !2792          ; [#uses=1 type=i32] [debug line = 133:2]
  %445 = xor i32 %437, %444, !dbg !2792           ; [#uses=1 type=i32] [debug line = 133:2]
  %446 = load i8** %1, align 8, !dbg !2792        ; [#uses=1 type=i8*] [debug line = 133:2]
  %447 = getelementptr inbounds i8* %446, i64 14, !dbg !2792 ; [#uses=1 type=i8*] [debug line = 133:2]
  %448 = load i8* %447, align 1, !dbg !2792       ; [#uses=1 type=i8] [debug line = 133:2]
  %449 = zext i8 %448 to i64, !dbg !2792          ; [#uses=1 type=i64] [debug line = 133:2]
  %450 = getelementptr inbounds [256 x i8]* @_ZL5mul11, i32 0, i64 %449, !dbg !2792 ; [#uses=1 type=i8*] [debug line = 133:2]
  %451 = load i8* %450, align 1, !dbg !2792       ; [#uses=1 type=i8] [debug line = 133:2]
  %452 = zext i8 %451 to i32, !dbg !2792          ; [#uses=1 type=i32] [debug line = 133:2]
  %453 = xor i32 %445, %452, !dbg !2792           ; [#uses=1 type=i32] [debug line = 133:2]
  %454 = load i8** %1, align 8, !dbg !2792        ; [#uses=1 type=i8*] [debug line = 133:2]
  %455 = getelementptr inbounds i8* %454, i64 15, !dbg !2792 ; [#uses=1 type=i8*] [debug line = 133:2]
  %456 = load i8* %455, align 1, !dbg !2792       ; [#uses=1 type=i8] [debug line = 133:2]
  %457 = zext i8 %456 to i64, !dbg !2792          ; [#uses=1 type=i64] [debug line = 133:2]
  %458 = getelementptr inbounds [256 x i8]* @_ZL5mul13, i32 0, i64 %457, !dbg !2792 ; [#uses=1 type=i8*] [debug line = 133:2]
  %459 = load i8* %458, align 1, !dbg !2792       ; [#uses=1 type=i8] [debug line = 133:2]
  %460 = zext i8 %459 to i32, !dbg !2792          ; [#uses=1 type=i32] [debug line = 133:2]
  %461 = xor i32 %453, %460, !dbg !2792           ; [#uses=1 type=i32] [debug line = 133:2]
  %462 = trunc i32 %461 to i8, !dbg !2792         ; [#uses=1 type=i8] [debug line = 133:2]
  %463 = getelementptr inbounds [16 x i8]* %tmp_state, i32 0, i64 13, !dbg !2792 ; [#uses=1 type=i8*] [debug line = 133:2]
  store i8 %462, i8* %463, align 1, !dbg !2792    ; [debug line = 133:2]
  %464 = load i8** %1, align 8, !dbg !2793        ; [#uses=1 type=i8*] [debug line = 135:2]
  %465 = getelementptr inbounds i8* %464, i64 12, !dbg !2793 ; [#uses=1 type=i8*] [debug line = 135:2]
  %466 = load i8* %465, align 1, !dbg !2793       ; [#uses=1 type=i8] [debug line = 135:2]
  %467 = zext i8 %466 to i64, !dbg !2793          ; [#uses=1 type=i64] [debug line = 135:2]
  %468 = getelementptr inbounds [256 x i8]* @_ZL5mul13, i32 0, i64 %467, !dbg !2793 ; [#uses=1 type=i8*] [debug line = 135:2]
  %469 = load i8* %468, align 1, !dbg !2793       ; [#uses=1 type=i8] [debug line = 135:2]
  %470 = zext i8 %469 to i32, !dbg !2793          ; [#uses=1 type=i32] [debug line = 135:2]
  %471 = load i8** %1, align 8, !dbg !2793        ; [#uses=1 type=i8*] [debug line = 135:2]
  %472 = getelementptr inbounds i8* %471, i64 13, !dbg !2793 ; [#uses=1 type=i8*] [debug line = 135:2]
  %473 = load i8* %472, align 1, !dbg !2793       ; [#uses=1 type=i8] [debug line = 135:2]
  %474 = zext i8 %473 to i64, !dbg !2793          ; [#uses=1 type=i64] [debug line = 135:2]
  %475 = getelementptr inbounds [256 x i8]* @_ZL5mul09, i32 0, i64 %474, !dbg !2793 ; [#uses=1 type=i8*] [debug line = 135:2]
  %476 = load i8* %475, align 1, !dbg !2793       ; [#uses=1 type=i8] [debug line = 135:2]
  %477 = zext i8 %476 to i32, !dbg !2793          ; [#uses=1 type=i32] [debug line = 135:2]
  %478 = xor i32 %470, %477, !dbg !2793           ; [#uses=1 type=i32] [debug line = 135:2]
  %479 = load i8** %1, align 8, !dbg !2793        ; [#uses=1 type=i8*] [debug line = 135:2]
  %480 = getelementptr inbounds i8* %479, i64 14, !dbg !2793 ; [#uses=1 type=i8*] [debug line = 135:2]
  %481 = load i8* %480, align 1, !dbg !2793       ; [#uses=1 type=i8] [debug line = 135:2]
  %482 = zext i8 %481 to i64, !dbg !2793          ; [#uses=1 type=i64] [debug line = 135:2]
  %483 = getelementptr inbounds [256 x i8]* @_ZL5mul14, i32 0, i64 %482, !dbg !2793 ; [#uses=1 type=i8*] [debug line = 135:2]
  %484 = load i8* %483, align 1, !dbg !2793       ; [#uses=1 type=i8] [debug line = 135:2]
  %485 = zext i8 %484 to i32, !dbg !2793          ; [#uses=1 type=i32] [debug line = 135:2]
  %486 = xor i32 %478, %485, !dbg !2793           ; [#uses=1 type=i32] [debug line = 135:2]
  %487 = load i8** %1, align 8, !dbg !2793        ; [#uses=1 type=i8*] [debug line = 135:2]
  %488 = getelementptr inbounds i8* %487, i64 15, !dbg !2793 ; [#uses=1 type=i8*] [debug line = 135:2]
  %489 = load i8* %488, align 1, !dbg !2793       ; [#uses=1 type=i8] [debug line = 135:2]
  %490 = zext i8 %489 to i64, !dbg !2793          ; [#uses=1 type=i64] [debug line = 135:2]
  %491 = getelementptr inbounds [256 x i8]* @_ZL5mul11, i32 0, i64 %490, !dbg !2793 ; [#uses=1 type=i8*] [debug line = 135:2]
  %492 = load i8* %491, align 1, !dbg !2793       ; [#uses=1 type=i8] [debug line = 135:2]
  %493 = zext i8 %492 to i32, !dbg !2793          ; [#uses=1 type=i32] [debug line = 135:2]
  %494 = xor i32 %486, %493, !dbg !2793           ; [#uses=1 type=i32] [debug line = 135:2]
  %495 = trunc i32 %494 to i8, !dbg !2793         ; [#uses=1 type=i8] [debug line = 135:2]
  %496 = getelementptr inbounds [16 x i8]* %tmp_state, i32 0, i64 14, !dbg !2793 ; [#uses=1 type=i8*] [debug line = 135:2]
  store i8 %495, i8* %496, align 1, !dbg !2793    ; [debug line = 135:2]
  %497 = load i8** %1, align 8, !dbg !2794        ; [#uses=1 type=i8*] [debug line = 137:2]
  %498 = getelementptr inbounds i8* %497, i64 12, !dbg !2794 ; [#uses=1 type=i8*] [debug line = 137:2]
  %499 = load i8* %498, align 1, !dbg !2794       ; [#uses=1 type=i8] [debug line = 137:2]
  %500 = zext i8 %499 to i64, !dbg !2794          ; [#uses=1 type=i64] [debug line = 137:2]
  %501 = getelementptr inbounds [256 x i8]* @_ZL5mul11, i32 0, i64 %500, !dbg !2794 ; [#uses=1 type=i8*] [debug line = 137:2]
  %502 = load i8* %501, align 1, !dbg !2794       ; [#uses=1 type=i8] [debug line = 137:2]
  %503 = zext i8 %502 to i32, !dbg !2794          ; [#uses=1 type=i32] [debug line = 137:2]
  %504 = load i8** %1, align 8, !dbg !2794        ; [#uses=1 type=i8*] [debug line = 137:2]
  %505 = getelementptr inbounds i8* %504, i64 13, !dbg !2794 ; [#uses=1 type=i8*] [debug line = 137:2]
  %506 = load i8* %505, align 1, !dbg !2794       ; [#uses=1 type=i8] [debug line = 137:2]
  %507 = zext i8 %506 to i64, !dbg !2794          ; [#uses=1 type=i64] [debug line = 137:2]
  %508 = getelementptr inbounds [256 x i8]* @_ZL5mul13, i32 0, i64 %507, !dbg !2794 ; [#uses=1 type=i8*] [debug line = 137:2]
  %509 = load i8* %508, align 1, !dbg !2794       ; [#uses=1 type=i8] [debug line = 137:2]
  %510 = zext i8 %509 to i32, !dbg !2794          ; [#uses=1 type=i32] [debug line = 137:2]
  %511 = xor i32 %503, %510, !dbg !2794           ; [#uses=1 type=i32] [debug line = 137:2]
  %512 = load i8** %1, align 8, !dbg !2794        ; [#uses=1 type=i8*] [debug line = 137:2]
  %513 = getelementptr inbounds i8* %512, i64 14, !dbg !2794 ; [#uses=1 type=i8*] [debug line = 137:2]
  %514 = load i8* %513, align 1, !dbg !2794       ; [#uses=1 type=i8] [debug line = 137:2]
  %515 = zext i8 %514 to i64, !dbg !2794          ; [#uses=1 type=i64] [debug line = 137:2]
  %516 = getelementptr inbounds [256 x i8]* @_ZL5mul09, i32 0, i64 %515, !dbg !2794 ; [#uses=1 type=i8*] [debug line = 137:2]
  %517 = load i8* %516, align 1, !dbg !2794       ; [#uses=1 type=i8] [debug line = 137:2]
  %518 = zext i8 %517 to i32, !dbg !2794          ; [#uses=1 type=i32] [debug line = 137:2]
  %519 = xor i32 %511, %518, !dbg !2794           ; [#uses=1 type=i32] [debug line = 137:2]
  %520 = load i8** %1, align 8, !dbg !2794        ; [#uses=1 type=i8*] [debug line = 137:2]
  %521 = getelementptr inbounds i8* %520, i64 15, !dbg !2794 ; [#uses=1 type=i8*] [debug line = 137:2]
  %522 = load i8* %521, align 1, !dbg !2794       ; [#uses=1 type=i8] [debug line = 137:2]
  %523 = zext i8 %522 to i64, !dbg !2794          ; [#uses=1 type=i64] [debug line = 137:2]
  %524 = getelementptr inbounds [256 x i8]* @_ZL5mul14, i32 0, i64 %523, !dbg !2794 ; [#uses=1 type=i8*] [debug line = 137:2]
  %525 = load i8* %524, align 1, !dbg !2794       ; [#uses=1 type=i8] [debug line = 137:2]
  %526 = zext i8 %525 to i32, !dbg !2794          ; [#uses=1 type=i32] [debug line = 137:2]
  %527 = xor i32 %519, %526, !dbg !2794           ; [#uses=1 type=i32] [debug line = 137:2]
  %528 = trunc i32 %527 to i8, !dbg !2794         ; [#uses=1 type=i8] [debug line = 137:2]
  %529 = getelementptr inbounds [16 x i8]* %tmp_state, i32 0, i64 15, !dbg !2794 ; [#uses=1 type=i8*] [debug line = 137:2]
  store i8 %528, i8* %529, align 1, !dbg !2794    ; [debug line = 137:2]
  call void @llvm.dbg.declare(metadata !{i16* %i}, metadata !2795), !dbg !2797 ; [debug line = 139:22] [debug variable = i]
  store i16 0, i16* %i, align 2, !dbg !2798       ; [debug line = 139:27]
  br label %530, !dbg !2798                       ; [debug line = 139:27]

; <label>:530                                     ; preds = %543, %0
  %531 = load i16* %i, align 2, !dbg !2798        ; [#uses=1 type=i16] [debug line = 139:27]
  %532 = zext i16 %531 to i32, !dbg !2798         ; [#uses=1 type=i32] [debug line = 139:27]
  %533 = icmp slt i32 %532, 16, !dbg !2798        ; [#uses=1 type=i1] [debug line = 139:27]
  br i1 %533, label %534, label %546, !dbg !2798  ; [debug line = 139:27]

; <label>:534                                     ; preds = %530
  %535 = load i16* %i, align 2, !dbg !2799        ; [#uses=1 type=i16] [debug line = 140:3]
  %536 = zext i16 %535 to i64, !dbg !2799         ; [#uses=1 type=i64] [debug line = 140:3]
  %537 = getelementptr inbounds [16 x i8]* %tmp_state, i32 0, i64 %536, !dbg !2799 ; [#uses=1 type=i8*] [debug line = 140:3]
  %538 = load i8* %537, align 1, !dbg !2799       ; [#uses=1 type=i8] [debug line = 140:3]
  %539 = load i16* %i, align 2, !dbg !2799        ; [#uses=1 type=i16] [debug line = 140:3]
  %540 = zext i16 %539 to i64, !dbg !2799         ; [#uses=1 type=i64] [debug line = 140:3]
  %541 = load i8** %1, align 8, !dbg !2799        ; [#uses=1 type=i8*] [debug line = 140:3]
  %542 = getelementptr inbounds i8* %541, i64 %540, !dbg !2799 ; [#uses=1 type=i8*] [debug line = 140:3]
  store i8 %538, i8* %542, align 1, !dbg !2799    ; [debug line = 140:3]
  br label %543, !dbg !2801                       ; [debug line = 141:2]

; <label>:543                                     ; preds = %534
  %544 = load i16* %i, align 2, !dbg !2802        ; [#uses=1 type=i16] [debug line = 139:42]
  %545 = add i16 %544, 1, !dbg !2802              ; [#uses=1 type=i16] [debug line = 139:42]
  store i16 %545, i16* %i, align 2, !dbg !2802    ; [debug line = 139:42]
  br label %530, !dbg !2802                       ; [debug line = 139:42]

; <label>:546                                     ; preds = %530
  ret void, !dbg !2803                            ; [debug line = 142:1]
}

; [#uses=2]
define internal void @_Z11AddRoundKeyPhS_(i8* %state, i8* %roundKey) nounwind uwtable {
  %1 = alloca i8*, align 8                        ; [#uses=2 type=i8**]
  %2 = alloca i8*, align 8                        ; [#uses=2 type=i8**]
  %i = alloca i16, align 2                        ; [#uses=6 type=i16*]
  store i8* %state, i8** %1, align 8
  call void @llvm.dbg.declare(metadata !{i8** %1}, metadata !2804), !dbg !2805 ; [debug line = 144:33] [debug variable = state]
  store i8* %roundKey, i8** %2, align 8
  call void @llvm.dbg.declare(metadata !{i8** %2}, metadata !2806), !dbg !2807 ; [debug line = 144:55] [debug variable = roundKey]
  call void (...)* @_ssdm_InlineSelf(i32 2, i8* getelementptr inbounds ([1 x i8]* @.str, i32 0, i32 0)) nounwind, !dbg !2808 ; [debug line = 145:1]
  call void @llvm.dbg.declare(metadata !{i16* %i}, metadata !2810), !dbg !2812 ; [debug line = 146:22] [debug variable = i]
  store i16 0, i16* %i, align 2, !dbg !2813       ; [debug line = 146:27]
  br label %3, !dbg !2813                         ; [debug line = 146:27]

; <label>:3                                       ; preds = %22, %0
  %4 = load i16* %i, align 2, !dbg !2813          ; [#uses=1 type=i16] [debug line = 146:27]
  %5 = zext i16 %4 to i32, !dbg !2813             ; [#uses=1 type=i32] [debug line = 146:27]
  %6 = icmp slt i32 %5, 16, !dbg !2813            ; [#uses=1 type=i1] [debug line = 146:27]
  br i1 %6, label %7, label %25, !dbg !2813       ; [debug line = 146:27]

; <label>:7                                       ; preds = %3
  call void (...)* @_ssdm_RegionBegin(i8* getelementptr inbounds ([12 x i8]* @.str3, i32 0, i32 0)) nounwind, !dbg !2814 ; [debug line = 146:48]
  call void (...)* @_ssdm_Unroll(i32 0, i32 0, i32 0, i8* getelementptr inbounds ([1 x i8]* @.str, i32 0, i32 0)) nounwind, !dbg !2816 ; [debug line = 147:1]
  %8 = load i16* %i, align 2, !dbg !2817          ; [#uses=1 type=i16] [debug line = 148:2]
  %9 = zext i16 %8 to i64, !dbg !2817             ; [#uses=1 type=i64] [debug line = 148:2]
  %10 = load i8** %2, align 8, !dbg !2817         ; [#uses=1 type=i8*] [debug line = 148:2]
  %11 = getelementptr inbounds i8* %10, i64 %9, !dbg !2817 ; [#uses=1 type=i8*] [debug line = 148:2]
  %12 = load i8* %11, align 1, !dbg !2817         ; [#uses=1 type=i8] [debug line = 148:2]
  %13 = zext i8 %12 to i32, !dbg !2817            ; [#uses=1 type=i32] [debug line = 148:2]
  %14 = load i16* %i, align 2, !dbg !2817         ; [#uses=1 type=i16] [debug line = 148:2]
  %15 = zext i16 %14 to i64, !dbg !2817           ; [#uses=1 type=i64] [debug line = 148:2]
  %16 = load i8** %1, align 8, !dbg !2817         ; [#uses=1 type=i8*] [debug line = 148:2]
  %17 = getelementptr inbounds i8* %16, i64 %15, !dbg !2817 ; [#uses=2 type=i8*] [debug line = 148:2]
  %18 = load i8* %17, align 1, !dbg !2817         ; [#uses=1 type=i8] [debug line = 148:2]
  %19 = zext i8 %18 to i32, !dbg !2817            ; [#uses=1 type=i32] [debug line = 148:2]
  %20 = xor i32 %19, %13, !dbg !2817              ; [#uses=1 type=i32] [debug line = 148:2]
  %21 = trunc i32 %20 to i8, !dbg !2817           ; [#uses=1 type=i8] [debug line = 148:2]
  store i8 %21, i8* %17, align 1, !dbg !2817      ; [debug line = 148:2]
  call void (...)* @_ssdm_RegionEnd(i8* getelementptr inbounds ([12 x i8]* @.str3, i32 0, i32 0)) nounwind, !dbg !2818 ; [debug line = 149:2]
  br label %22, !dbg !2818                        ; [debug line = 149:2]

; <label>:22                                      ; preds = %7
  %23 = load i16* %i, align 2, !dbg !2819         ; [#uses=1 type=i16] [debug line = 146:42]
  %24 = add i16 %23, 1, !dbg !2819                ; [#uses=1 type=i16] [debug line = 146:42]
  store i16 %24, i16* %i, align 2, !dbg !2819     ; [debug line = 146:42]
  br label %3, !dbg !2819                         ; [debug line = 146:42]

; <label>:25                                      ; preds = %3
  ret void, !dbg !2820                            ; [debug line = 150:1]
}

; [#uses=3]
declare void @_ssdm_SpecArrayDimSize(...) nounwind

; [#uses=3]
declare void @_ssdm_op_SpecInterface(...) nounwind

; [#uses=1]
declare void @_ssdm_InlineRegion(...) nounwind

; [#uses=1]
declare void @_ssdm_op_SpecResourceLimit(...) nounwind

; [#uses=5]
declare void @_ssdm_SpecArrayMap(...) nounwind

; [#uses=2]
declare void @_ssdm_op_SpecLoopName(...) nounwind

; [#uses=1]
declare void @_ssdm_op_SpecPipeline(...) nounwind

; [#uses=0]
define void @_Z11AES_DecryptPhS_tS_(i8* %ciphertext, i8* %expandedKey, i16 zeroext %Nr, i8* %plaintext) nounwind uwtable {
  %1 = alloca i8*, align 8                        ; [#uses=4 type=i8**]
  %2 = alloca i8*, align 8                        ; [#uses=5 type=i8**]
  %3 = alloca i16, align 2                        ; [#uses=5 type=i16*]
  %4 = alloca i8*, align 8                        ; [#uses=4 type=i8**]
  %state = alloca [16 x i8], align 16             ; [#uses=7 type=[16 x i8]*]
  %i = alloca i16, align 2                        ; [#uses=6 type=i16*]
  %i1 = alloca i16, align 2                       ; [#uses=6 type=i16*]
  %i2 = alloca i16, align 2                       ; [#uses=6 type=i16*]
  store i8* %ciphertext, i8** %1, align 8
  call void @llvm.dbg.declare(metadata !{i8** %1}, metadata !2821), !dbg !2822 ; [debug line = 194:32] [debug variable = ciphertext]
  store i8* %expandedKey, i8** %2, align 8
  call void @llvm.dbg.declare(metadata !{i8** %2}, metadata !2823), !dbg !2824 ; [debug line = 195:17] [debug variable = expandedKey]
  store i16 %Nr, i16* %3, align 2
  call void @llvm.dbg.declare(metadata !{i16* %3}, metadata !2825), !dbg !2826 ; [debug line = 195:71] [debug variable = Nr]
  store i8* %plaintext, i8** %4, align 8
  call void @llvm.dbg.declare(metadata !{i8** %4}, metadata !2827), !dbg !2828 ; [debug line = 196:17] [debug variable = plaintext]
  %5 = load i8** %1, align 8, !dbg !2829          ; [#uses=1 type=i8*] [debug line = 196:38]
  call void (...)* @_ssdm_SpecArrayDimSize(i8* %5, i32 16) nounwind, !dbg !2829 ; [debug line = 196:38]
  %6 = load i8** %4, align 8, !dbg !2831          ; [#uses=1 type=i8*] [debug line = 196:81]
  call void (...)* @_ssdm_SpecArrayDimSize(i8* %6, i32 16) nounwind, !dbg !2831 ; [debug line = 196:81]
  %7 = load i8** %2, align 8, !dbg !2832          ; [#uses=1 type=i8*] [debug line = 196:123]
  call void (...)* @_ssdm_SpecArrayDimSize(i8* %7, i32 240) nounwind, !dbg !2832 ; [debug line = 196:123]
  %8 = load i8** %1, align 8, !dbg !2833          ; [#uses=1 type=i8*] [debug line = 197:1]
  call void (...)* @_ssdm_op_SpecInterface(i8* %8, i8* getelementptr inbounds ([5 x i8]* @.str4, i32 0, i32 0), i32 1, i32 1, i8* getelementptr inbounds ([5 x i8]* @.str5, i32 0, i32 0), i32 0, i32 0, i8* getelementptr inbounds ([1 x i8]* @.str, i32 0, i32 0), i8* getelementptr inbounds ([1 x i8]* @.str, i32 0, i32 0), i8* getelementptr inbounds ([1 x i8]* @.str, i32 0, i32 0), i32 0, i32 0, i32 0, i32 0, i8* getelementptr inbounds ([1 x i8]* @.str, i32 0, i32 0), i8* getelementptr inbounds ([1 x i8]* @.str, i32 0, i32 0)) nounwind, !dbg !2833 ; [debug line = 197:1]
  %9 = load i8** %2, align 8, !dbg !2834          ; [#uses=1 type=i8*] [debug line = 198:1]
  call void (...)* @_ssdm_op_SpecInterface(i8* %9, i8* getelementptr inbounds ([5 x i8]* @.str4, i32 0, i32 0), i32 1, i32 1, i8* getelementptr inbounds ([5 x i8]* @.str5, i32 0, i32 0), i32 0, i32 0, i8* getelementptr inbounds ([1 x i8]* @.str, i32 0, i32 0), i8* getelementptr inbounds ([1 x i8]* @.str, i32 0, i32 0), i8* getelementptr inbounds ([1 x i8]* @.str, i32 0, i32 0), i32 0, i32 0, i32 0, i32 0, i8* getelementptr inbounds ([1 x i8]* @.str, i32 0, i32 0), i8* getelementptr inbounds ([1 x i8]* @.str, i32 0, i32 0)) nounwind, !dbg !2834 ; [debug line = 198:1]
  %10 = load i8** %4, align 8, !dbg !2835         ; [#uses=1 type=i8*] [debug line = 199:1]
  call void (...)* @_ssdm_op_SpecInterface(i8* %10, i8* getelementptr inbounds ([5 x i8]* @.str4, i32 0, i32 0), i32 1, i32 1, i8* getelementptr inbounds ([5 x i8]* @.str5, i32 0, i32 0), i32 0, i32 0, i8* getelementptr inbounds ([1 x i8]* @.str, i32 0, i32 0), i8* getelementptr inbounds ([1 x i8]* @.str, i32 0, i32 0), i8* getelementptr inbounds ([1 x i8]* @.str, i32 0, i32 0), i32 0, i32 0, i32 0, i32 0, i8* getelementptr inbounds ([1 x i8]* @.str, i32 0, i32 0), i8* getelementptr inbounds ([1 x i8]* @.str, i32 0, i32 0)) nounwind, !dbg !2835 ; [debug line = 199:1]
  call void (...)* @_ssdm_InlineRegion(i32 0, i8* getelementptr inbounds ([1 x i8]* @.str, i32 0, i32 0)) nounwind, !dbg !2836 ; [debug line = 201:1]
  call void (...)* @_ssdm_op_SpecResourceLimit(i32 1, i8* getelementptr inbounds ([1 x i8]* @.str, i32 0, i32 0), i8* getelementptr inbounds ([1 x i8]* @.str, i32 0, i32 0), i8* getelementptr inbounds ([12 x i8]* @.str6, i32 0, i32 0), i8* getelementptr inbounds ([1 x i8]* @.str, i32 0, i32 0)) nounwind, !dbg !2837 ; [debug line = 202:1]
  call void (...)* @_ssdm_SpecArrayMap(i8* getelementptr inbounds ([256 x i8]* @_ZL14inverted_s_box, i32 0, i32 0), i8* getelementptr inbounds ([15 x i8]* @.str12, i32 0, i32 0), i32 -1, i8* getelementptr inbounds ([11 x i8]* @.str8, i32 0, i32 0), i8* getelementptr inbounds ([1 x i8]* @.str, i32 0, i32 0)) nounwind, !dbg !2838 ; [debug line = 203:1]
  call void (...)* @_ssdm_SpecArrayMap(i8* getelementptr inbounds ([256 x i8]* @_ZL5mul09, i32 0, i32 0), i8* getelementptr inbounds ([15 x i8]* @.str12, i32 0, i32 0), i32 -1, i8* getelementptr inbounds ([11 x i8]* @.str8, i32 0, i32 0), i8* getelementptr inbounds ([1 x i8]* @.str, i32 0, i32 0)) nounwind, !dbg !2839 ; [debug line = 204:1]
  call void (...)* @_ssdm_SpecArrayMap(i8* getelementptr inbounds ([256 x i8]* @_ZL5mul11, i32 0, i32 0), i8* getelementptr inbounds ([15 x i8]* @.str12, i32 0, i32 0), i32 -1, i8* getelementptr inbounds ([11 x i8]* @.str8, i32 0, i32 0), i8* getelementptr inbounds ([1 x i8]* @.str, i32 0, i32 0)) nounwind, !dbg !2840 ; [debug line = 205:1]
  call void (...)* @_ssdm_SpecArrayMap(i8* getelementptr inbounds ([256 x i8]* @_ZL5mul13, i32 0, i32 0), i8* getelementptr inbounds ([15 x i8]* @.str12, i32 0, i32 0), i32 -1, i8* getelementptr inbounds ([11 x i8]* @.str8, i32 0, i32 0), i8* getelementptr inbounds ([1 x i8]* @.str, i32 0, i32 0)) nounwind, !dbg !2841 ; [debug line = 206:1]
  call void (...)* @_ssdm_SpecArrayMap(i8* getelementptr inbounds ([256 x i8]* @_ZL5mul14, i32 0, i32 0), i8* getelementptr inbounds ([15 x i8]* @.str12, i32 0, i32 0), i32 -1, i8* getelementptr inbounds ([11 x i8]* @.str8, i32 0, i32 0), i8* getelementptr inbounds ([1 x i8]* @.str, i32 0, i32 0)) nounwind, !dbg !2842 ; [debug line = 207:1]
  call void @llvm.dbg.declare(metadata !{[16 x i8]* %state}, metadata !2843), !dbg !2844 ; [debug line = 210:16] [debug variable = state]
  br label %11, !dbg !2845                        ; [debug line = 210:30]

; <label>:11                                      ; preds = %0
  call void @llvm.dbg.declare(metadata !{i16* %i}, metadata !2846), !dbg !2848 ; [debug line = 211:30] [debug variable = i]
  store i16 0, i16* %i, align 2, !dbg !2849       ; [debug line = 211:35]
  br label %12, !dbg !2849                        ; [debug line = 211:35]

; <label>:12                                      ; preds = %25, %11
  %13 = load i16* %i, align 2, !dbg !2849         ; [#uses=1 type=i16] [debug line = 211:35]
  %14 = zext i16 %13 to i32, !dbg !2849           ; [#uses=1 type=i32] [debug line = 211:35]
  %15 = icmp slt i32 %14, 16, !dbg !2849          ; [#uses=1 type=i1] [debug line = 211:35]
  br i1 %15, label %16, label %28, !dbg !2849     ; [debug line = 211:35]

; <label>:16                                      ; preds = %12
  call void (...)* @_ssdm_op_SpecLoopName(i8* getelementptr inbounds ([7 x i8]* @.str9, i32 0, i32 0)) nounwind, !dbg !2850 ; [debug line = 211:56]
  call void (...)* @_ssdm_RegionBegin(i8* getelementptr inbounds ([7 x i8]* @.str9, i32 0, i32 0)) nounwind, !dbg !2850 ; [debug line = 211:56]
  call void (...)* @_ssdm_op_SpecPipeline(i32 -1, i32 1, i32 1, i32 0, i8* getelementptr inbounds ([1 x i8]* @.str, i32 0, i32 0)) nounwind, !dbg !2852 ; [debug line = 212:1]
  %17 = load i16* %i, align 2, !dbg !2853         ; [#uses=1 type=i16] [debug line = 213:2]
  %18 = zext i16 %17 to i64, !dbg !2853           ; [#uses=1 type=i64] [debug line = 213:2]
  %19 = load i8** %1, align 8, !dbg !2853         ; [#uses=1 type=i8*] [debug line = 213:2]
  %20 = getelementptr inbounds i8* %19, i64 %18, !dbg !2853 ; [#uses=1 type=i8*] [debug line = 213:2]
  %21 = load i8* %20, align 1, !dbg !2853         ; [#uses=1 type=i8] [debug line = 213:2]
  %22 = load i16* %i, align 2, !dbg !2853         ; [#uses=1 type=i16] [debug line = 213:2]
  %23 = zext i16 %22 to i64, !dbg !2853           ; [#uses=1 type=i64] [debug line = 213:2]
  %24 = getelementptr inbounds [16 x i8]* %state, i32 0, i64 %23, !dbg !2853 ; [#uses=1 type=i8*] [debug line = 213:2]
  store i8 %21, i8* %24, align 1, !dbg !2853      ; [debug line = 213:2]
  call void (...)* @_ssdm_RegionEnd(i8* getelementptr inbounds ([7 x i8]* @.str9, i32 0, i32 0)) nounwind, !dbg !2854 ; [debug line = 214:2]
  br label %25, !dbg !2854                        ; [debug line = 214:2]

; <label>:25                                      ; preds = %16
  %26 = load i16* %i, align 2, !dbg !2855         ; [#uses=1 type=i16] [debug line = 211:50]
  %27 = add i16 %26, 1, !dbg !2855                ; [#uses=1 type=i16] [debug line = 211:50]
  store i16 %27, i16* %i, align 2, !dbg !2855     ; [debug line = 211:50]
  br label %12, !dbg !2855                        ; [debug line = 211:50]

; <label>:28                                      ; preds = %12
  %29 = getelementptr inbounds [16 x i8]* %state, i32 0, i32 0, !dbg !2856 ; [#uses=1 type=i8*] [debug line = 216:2]
  %30 = load i8** %2, align 8, !dbg !2856         ; [#uses=1 type=i8*] [debug line = 216:2]
  %31 = load i16* %3, align 2, !dbg !2856         ; [#uses=1 type=i16] [debug line = 216:2]
  %32 = zext i16 %31 to i32, !dbg !2856           ; [#uses=1 type=i32] [debug line = 216:2]
  %33 = mul nsw i32 16, %32, !dbg !2856           ; [#uses=1 type=i32] [debug line = 216:2]
  %34 = sext i32 %33 to i64, !dbg !2856           ; [#uses=1 type=i64] [debug line = 216:2]
  %35 = getelementptr inbounds i8* %30, i64 %34, !dbg !2856 ; [#uses=1 type=i8*] [debug line = 216:2]
  call void @_Z11AddRoundKeyPhS_(i8* %29, i8* %35), !dbg !2856 ; [debug line = 216:2]
  br label %36, !dbg !2856                        ; [debug line = 216:2]

; <label>:36                                      ; preds = %28
  call void @llvm.dbg.declare(metadata !{i16* %i1}, metadata !2857), !dbg !2859 ; [debug line = 218:32] [debug variable = i]
  store i16 0, i16* %i1, align 2, !dbg !2860      ; [debug line = 218:37]
  br label %37, !dbg !2860                        ; [debug line = 218:37]

; <label>:37                                      ; preds = %66, %36
  %38 = load i16* %i1, align 2, !dbg !2860        ; [#uses=1 type=i16] [debug line = 218:37]
  %39 = zext i16 %38 to i32, !dbg !2860           ; [#uses=1 type=i32] [debug line = 218:37]
  %40 = load i16* %3, align 2, !dbg !2860         ; [#uses=1 type=i16] [debug line = 218:37]
  %41 = zext i16 %40 to i32, !dbg !2860           ; [#uses=1 type=i32] [debug line = 218:37]
  %42 = icmp slt i32 %39, %41, !dbg !2860         ; [#uses=1 type=i1] [debug line = 218:37]
  br i1 %42, label %43, label %69, !dbg !2860     ; [debug line = 218:37]

; <label>:43                                      ; preds = %37
  call void (...)* @_ssdm_op_SpecLoopName(i8* getelementptr inbounds ([9 x i8]* @.str10, i32 0, i32 0)) nounwind, !dbg !2861 ; [debug line = 218:53]
  call void (...)* @_ssdm_RegionBegin(i8* getelementptr inbounds ([9 x i8]* @.str10, i32 0, i32 0)) nounwind, !dbg !2861 ; [debug line = 218:53]
  %44 = getelementptr inbounds [16 x i8]* %state, i32 0, i32 0, !dbg !2863 ; [#uses=1 type=i8*] [debug line = 220:3]
  call void @_Z12InvShiftRowsPh(i8* %44), !dbg !2863 ; [debug line = 220:3]
  %45 = getelementptr inbounds [16 x i8]* %state, i32 0, i32 0, !dbg !2864 ; [#uses=1 type=i8*] [debug line = 221:3]
  call void @_Z11InvSubBytesPh(i8* %45), !dbg !2864 ; [debug line = 221:3]
  %46 = getelementptr inbounds [16 x i8]* %state, i32 0, i32 0, !dbg !2865 ; [#uses=1 type=i8*] [debug line = 222:3]
  %47 = load i8** %2, align 8, !dbg !2865         ; [#uses=1 type=i8*] [debug line = 222:3]
  %48 = load i16* %3, align 2, !dbg !2865         ; [#uses=1 type=i16] [debug line = 222:3]
  %49 = zext i16 %48 to i32, !dbg !2865           ; [#uses=1 type=i32] [debug line = 222:3]
  %50 = load i16* %i1, align 2, !dbg !2865        ; [#uses=1 type=i16] [debug line = 222:3]
  %51 = zext i16 %50 to i32, !dbg !2865           ; [#uses=1 type=i32] [debug line = 222:3]
  %52 = sub nsw i32 %49, %51, !dbg !2865          ; [#uses=1 type=i32] [debug line = 222:3]
  %53 = sub nsw i32 %52, 1, !dbg !2865            ; [#uses=1 type=i32] [debug line = 222:3]
  %54 = mul nsw i32 16, %53, !dbg !2865           ; [#uses=1 type=i32] [debug line = 222:3]
  %55 = sext i32 %54 to i64, !dbg !2865           ; [#uses=1 type=i64] [debug line = 222:3]
  %56 = getelementptr inbounds i8* %47, i64 %55, !dbg !2865 ; [#uses=1 type=i8*] [debug line = 222:3]
  call void @_Z11AddRoundKeyPhS_(i8* %46, i8* %56), !dbg !2865 ; [debug line = 222:3]
  %57 = load i16* %i1, align 2, !dbg !2866        ; [#uses=1 type=i16] [debug line = 223:3]
  %58 = zext i16 %57 to i32, !dbg !2866           ; [#uses=1 type=i32] [debug line = 223:3]
  %59 = load i16* %3, align 2, !dbg !2866         ; [#uses=1 type=i16] [debug line = 223:3]
  %60 = zext i16 %59 to i32, !dbg !2866           ; [#uses=1 type=i32] [debug line = 223:3]
  %61 = sub nsw i32 %60, 1, !dbg !2866            ; [#uses=1 type=i32] [debug line = 223:3]
  %62 = icmp ne i32 %58, %61, !dbg !2866          ; [#uses=1 type=i1] [debug line = 223:3]
  br i1 %62, label %63, label %65, !dbg !2866     ; [debug line = 223:3]

; <label>:63                                      ; preds = %43
  %64 = getelementptr inbounds [16 x i8]* %state, i32 0, i32 0, !dbg !2867 ; [#uses=1 type=i8*] [debug line = 224:4]
  call void @_Z13InvMixColumnsPh(i8* %64), !dbg !2867 ; [debug line = 224:4]
  br label %65, !dbg !2869                        ; [debug line = 225:3]

; <label>:65                                      ; preds = %63, %43
  call void (...)* @_ssdm_RegionEnd(i8* getelementptr inbounds ([9 x i8]* @.str10, i32 0, i32 0)) nounwind, !dbg !2870 ; [debug line = 226:2]
  br label %66, !dbg !2870                        ; [debug line = 226:2]

; <label>:66                                      ; preds = %65
  %67 = load i16* %i1, align 2, !dbg !2871        ; [#uses=1 type=i16] [debug line = 218:47]
  %68 = add i16 %67, 1, !dbg !2871                ; [#uses=1 type=i16] [debug line = 218:47]
  store i16 %68, i16* %i1, align 2, !dbg !2871    ; [debug line = 218:47]
  br label %37, !dbg !2871                        ; [debug line = 218:47]

; <label>:69                                      ; preds = %37
  call void @llvm.dbg.declare(metadata !{i16* %i2}, metadata !2872), !dbg !2874 ; [debug line = 229:22] [debug variable = i]
  store i16 0, i16* %i2, align 2, !dbg !2875      ; [debug line = 229:27]
  br label %70, !dbg !2875                        ; [debug line = 229:27]

; <label>:70                                      ; preds = %83, %69
  %71 = load i16* %i2, align 2, !dbg !2875        ; [#uses=1 type=i16] [debug line = 229:27]
  %72 = zext i16 %71 to i32, !dbg !2875           ; [#uses=1 type=i32] [debug line = 229:27]
  %73 = icmp slt i32 %72, 16, !dbg !2875          ; [#uses=1 type=i1] [debug line = 229:27]
  br i1 %73, label %74, label %86, !dbg !2875     ; [debug line = 229:27]

; <label>:74                                      ; preds = %70
  call void (...)* @_ssdm_RegionBegin(i8* getelementptr inbounds ([12 x i8]* @.str13, i32 0, i32 0)) nounwind, !dbg !2876 ; [debug line = 229:48]
  call void (...)* @_ssdm_Unroll(i32 0, i32 0, i32 0, i8* getelementptr inbounds ([1 x i8]* @.str, i32 0, i32 0)) nounwind, !dbg !2878 ; [debug line = 230:1]
  %75 = load i16* %i2, align 2, !dbg !2879        ; [#uses=1 type=i16] [debug line = 231:2]
  %76 = zext i16 %75 to i64, !dbg !2879           ; [#uses=1 type=i64] [debug line = 231:2]
  %77 = getelementptr inbounds [16 x i8]* %state, i32 0, i64 %76, !dbg !2879 ; [#uses=1 type=i8*] [debug line = 231:2]
  %78 = load i8* %77, align 1, !dbg !2879         ; [#uses=1 type=i8] [debug line = 231:2]
  %79 = load i16* %i2, align 2, !dbg !2879        ; [#uses=1 type=i16] [debug line = 231:2]
  %80 = zext i16 %79 to i64, !dbg !2879           ; [#uses=1 type=i64] [debug line = 231:2]
  %81 = load i8** %4, align 8, !dbg !2879         ; [#uses=1 type=i8*] [debug line = 231:2]
  %82 = getelementptr inbounds i8* %81, i64 %80, !dbg !2879 ; [#uses=1 type=i8*] [debug line = 231:2]
  store i8 %78, i8* %82, align 1, !dbg !2879      ; [debug line = 231:2]
  call void (...)* @_ssdm_RegionEnd(i8* getelementptr inbounds ([12 x i8]* @.str13, i32 0, i32 0)) nounwind, !dbg !2880 ; [debug line = 232:2]
  br label %83, !dbg !2880                        ; [debug line = 232:2]

; <label>:83                                      ; preds = %74
  %84 = load i16* %i2, align 2, !dbg !2881        ; [#uses=1 type=i16] [debug line = 229:42]
  %85 = add i16 %84, 1, !dbg !2881                ; [#uses=1 type=i16] [debug line = 229:42]
  store i16 %85, i16* %i2, align 2, !dbg !2881    ; [debug line = 229:42]
  br label %70, !dbg !2881                        ; [debug line = 229:42]

; <label>:86                                      ; preds = %70
  ret void, !dbg !2882                            ; [debug line = 233:1]
}

; [#uses=1]
define internal void @__cxx_global_var_init14() nounwind {
  call void @_ZN45ssdm_global_array_AESfunctionspp0cppaplinecppC1Ev(%"class.std::ios_base::Init"* @_ZL21ssdm_global_array_ins)
  ret void
}

; [#uses=1]
define internal void @_ZN45ssdm_global_array_AESfunctionspp0cppaplinecppC1Ev(%"class.std::ios_base::Init"* %this) unnamed_addr nounwind uwtable inlinehint alwaysinline align 2 {
  %1 = alloca %"class.std::ios_base::Init"*, align 8 ; [#uses=2 type=%"class.std::ios_base::Init"**]
  store %"class.std::ios_base::Init"* %this, %"class.std::ios_base::Init"** %1, align 8
  call void @llvm.dbg.declare(metadata !{%"class.std::ios_base::Init"** %1}, metadata !2883), !dbg !2885 ; [debug line = 237:42] [debug variable = this]
  %2 = load %"class.std::ios_base::Init"** %1     ; [#uses=1 type=%"class.std::ios_base::Init"*]
  call void @_ZN45ssdm_global_array_AESfunctionspp0cppaplinecppC2Ev(%"class.std::ios_base::Init"* %2), !dbg !2886 ; [debug line = 253:3]
  ret void, !dbg !2886                            ; [debug line = 253:3]
}

; [#uses=1]
define internal void @_ZN45ssdm_global_array_AESfunctionspp0cppaplinecppC2Ev(%"class.std::ios_base::Init"* %this) unnamed_addr nounwind uwtable inlinehint alwaysinline align 2 {
  %1 = alloca %"class.std::ios_base::Init"*, align 8 ; [#uses=2 type=%"class.std::ios_base::Init"**]
  store %"class.std::ios_base::Init"* %this, %"class.std::ios_base::Init"** %1, align 8
  call void @llvm.dbg.declare(metadata !{%"class.std::ios_base::Init"** %1}, metadata !2887), !dbg !2888 ; [debug line = 237:42] [debug variable = this]
  %2 = load %"class.std::ios_base::Init"** %1     ; [#uses=0 type=%"class.std::ios_base::Init"*]
  call void (...)* @_ssdm_SpecConstant(i16* @_ZL2Nb) nounwind, !dbg !2889 ; [debug line = 238:4]
  call void (...)* @_ssdm_SpecConstant(i16* @_ZL4rows) nounwind, !dbg !2891 ; [debug line = 239:4]
  call void (...)* @_ssdm_SpecConstant(i16* @_ZL7stt_lng) nounwind, !dbg !2892 ; [debug line = 240:4]
  call void (...)* @_ssdm_SpecConstant(i16* @_ZL6Nk_max) nounwind, !dbg !2893 ; [debug line = 241:4]
  call void (...)* @_ssdm_SpecConstant(i16* @_ZL20CipherKeyLenghth_max) nounwind, !dbg !2894 ; [debug line = 242:4]
  call void (...)* @_ssdm_SpecConstant(i16* @_ZL6Nr_max) nounwind, !dbg !2895 ; [debug line = 243:4]
  call void (...)* @_ssdm_SpecConstant(i16* @_ZL24ExtdCipherKeyLenghth_max) nounwind, !dbg !2896 ; [debug line = 244:4]
  call void (...)* @_ssdm_SpecConstant(i8* getelementptr inbounds ([256 x i8]* @_ZL5s_box, i32 0, i32 0)) nounwind, !dbg !2897 ; [debug line = 245:4]
  call void (...)* @_ssdm_SpecConstant(i8* getelementptr inbounds ([256 x i8]* @_ZL14inverted_s_box, i32 0, i32 0)) nounwind, !dbg !2898 ; [debug line = 246:4]
  call void (...)* @_ssdm_SpecConstant(i8* getelementptr inbounds ([256 x i8]* @_ZL5mul02, i32 0, i32 0)) nounwind, !dbg !2899 ; [debug line = 247:4]
  call void (...)* @_ssdm_SpecConstant(i8* getelementptr inbounds ([256 x i8]* @_ZL5mul03, i32 0, i32 0)) nounwind, !dbg !2900 ; [debug line = 248:4]
  call void (...)* @_ssdm_SpecConstant(i8* getelementptr inbounds ([256 x i8]* @_ZL5mul09, i32 0, i32 0)) nounwind, !dbg !2901 ; [debug line = 249:4]
  call void (...)* @_ssdm_SpecConstant(i8* getelementptr inbounds ([256 x i8]* @_ZL5mul11, i32 0, i32 0)) nounwind, !dbg !2902 ; [debug line = 250:4]
  call void (...)* @_ssdm_SpecConstant(i8* getelementptr inbounds ([256 x i8]* @_ZL5mul13, i32 0, i32 0)) nounwind, !dbg !2903 ; [debug line = 251:4]
  call void (...)* @_ssdm_SpecConstant(i8* getelementptr inbounds ([256 x i8]* @_ZL5mul14, i32 0, i32 0)) nounwind, !dbg !2904 ; [debug line = 252:4]
  ret void, !dbg !2905                            ; [debug line = 253:3]
}

; [#uses=15]
declare void @_ssdm_SpecConstant(...) nounwind

; [#uses=1]
define internal void @_GLOBAL__I_a() nounwind {
  call void @__cxx_global_var_init()
  call void @__cxx_global_var_init14()
  ret void
}

!llvm.dbg.cu = !{!0}
!opencl.kernels = !{!2695, !2702, !2695, !2703, !2695, !2704, !2705, !2711, !2717, !2719, !2725}
!hls.encrypted.func = !{}

!0 = metadata !{i32 786449, i32 0, i32 4, metadata !"D:/OneDrive/UVA/crypto/AES_code/VivadoHLS/inverse_cipher/aes_inverse_cipher/.autopilot/db/AESfunctions.pragma.2.cpp", metadata !"D:\5COneDrive\5CUVA\5Ccrypto\5CAES_code\5CVivadoHLS", metadata !"clang version 3.1 ", i1 true, i1 false, metadata !"", i32 0, metadata !1, metadata !865, metadata !867, metadata !896} ; [ DW_TAG_compile_unit ]
!1 = metadata !{metadata !2}
!2 = metadata !{metadata !3, metadata !26, metadata !33, metadata !42, metadata !48}
!3 = metadata !{i32 786436, metadata !4, metadata !"_Ios_Fmtflags", metadata !5, i32 59, i64 17, i64 32, i32 0, i32 0, null, metadata !6, i32 0, i32 0} ; [ DW_TAG_enumeration_type ]
!4 = metadata !{i32 786489, null, metadata !"std", metadata !5, i32 53} ; [ DW_TAG_namespace ]
!5 = metadata !{i32 786473, metadata !"C:/Dev/Xilinx/Vivado/2017.4/win64/tools/clang/bin\5C..\5Clib\5Cclang\5C3.1/../../../include/c++/4.5.2\5Cbits/ios_base.h", metadata !"D:\5COneDrive\5CUVA\5Ccrypto\5CAES_code\5CVivadoHLS", null} ; [ DW_TAG_file_type ]
!6 = metadata !{metadata !7, metadata !8, metadata !9, metadata !10, metadata !11, metadata !12, metadata !13, metadata !14, metadata !15, metadata !16, metadata !17, metadata !18, metadata !19, metadata !20, metadata !21, metadata !22, metadata !23, metadata !24, metadata !25}
!7 = metadata !{i32 786472, metadata !"_S_boolalpha", i64 1} ; [ DW_TAG_enumerator ]
!8 = metadata !{i32 786472, metadata !"_S_dec", i64 2} ; [ DW_TAG_enumerator ]
!9 = metadata !{i32 786472, metadata !"_S_fixed", i64 4} ; [ DW_TAG_enumerator ]
!10 = metadata !{i32 786472, metadata !"_S_hex", i64 8} ; [ DW_TAG_enumerator ]
!11 = metadata !{i32 786472, metadata !"_S_internal", i64 16} ; [ DW_TAG_enumerator ]
!12 = metadata !{i32 786472, metadata !"_S_left", i64 32} ; [ DW_TAG_enumerator ]
!13 = metadata !{i32 786472, metadata !"_S_oct", i64 64} ; [ DW_TAG_enumerator ]
!14 = metadata !{i32 786472, metadata !"_S_right", i64 128} ; [ DW_TAG_enumerator ]
!15 = metadata !{i32 786472, metadata !"_S_scientific", i64 256} ; [ DW_TAG_enumerator ]
!16 = metadata !{i32 786472, metadata !"_S_showbase", i64 512} ; [ DW_TAG_enumerator ]
!17 = metadata !{i32 786472, metadata !"_S_showpoint", i64 1024} ; [ DW_TAG_enumerator ]
!18 = metadata !{i32 786472, metadata !"_S_showpos", i64 2048} ; [ DW_TAG_enumerator ]
!19 = metadata !{i32 786472, metadata !"_S_skipws", i64 4096} ; [ DW_TAG_enumerator ]
!20 = metadata !{i32 786472, metadata !"_S_unitbuf", i64 8192} ; [ DW_TAG_enumerator ]
!21 = metadata !{i32 786472, metadata !"_S_uppercase", i64 16384} ; [ DW_TAG_enumerator ]
!22 = metadata !{i32 786472, metadata !"_S_adjustfield", i64 176} ; [ DW_TAG_enumerator ]
!23 = metadata !{i32 786472, metadata !"_S_basefield", i64 74} ; [ DW_TAG_enumerator ]
!24 = metadata !{i32 786472, metadata !"_S_floatfield", i64 260} ; [ DW_TAG_enumerator ]
!25 = metadata !{i32 786472, metadata !"_S_ios_fmtflags_end", i64 65536} ; [ DW_TAG_enumerator ]
!26 = metadata !{i32 786436, metadata !4, metadata !"_Ios_Iostate", metadata !5, i32 151, i64 17, i64 32, i32 0, i32 0, null, metadata !27, i32 0, i32 0} ; [ DW_TAG_enumeration_type ]
!27 = metadata !{metadata !28, metadata !29, metadata !30, metadata !31, metadata !32}
!28 = metadata !{i32 786472, metadata !"_S_goodbit", i64 0} ; [ DW_TAG_enumerator ]
!29 = metadata !{i32 786472, metadata !"_S_badbit", i64 1} ; [ DW_TAG_enumerator ]
!30 = metadata !{i32 786472, metadata !"_S_eofbit", i64 2} ; [ DW_TAG_enumerator ]
!31 = metadata !{i32 786472, metadata !"_S_failbit", i64 4} ; [ DW_TAG_enumerator ]
!32 = metadata !{i32 786472, metadata !"_S_ios_iostate_end", i64 65536} ; [ DW_TAG_enumerator ]
!33 = metadata !{i32 786436, metadata !4, metadata !"_Ios_Openmode", metadata !5, i32 111, i64 17, i64 32, i32 0, i32 0, null, metadata !34, i32 0, i32 0} ; [ DW_TAG_enumeration_type ]
!34 = metadata !{metadata !35, metadata !36, metadata !37, metadata !38, metadata !39, metadata !40, metadata !41}
!35 = metadata !{i32 786472, metadata !"_S_app", i64 1} ; [ DW_TAG_enumerator ]
!36 = metadata !{i32 786472, metadata !"_S_ate", i64 2} ; [ DW_TAG_enumerator ]
!37 = metadata !{i32 786472, metadata !"_S_bin", i64 4} ; [ DW_TAG_enumerator ]
!38 = metadata !{i32 786472, metadata !"_S_in", i64 8} ; [ DW_TAG_enumerator ]
!39 = metadata !{i32 786472, metadata !"_S_out", i64 16} ; [ DW_TAG_enumerator ]
!40 = metadata !{i32 786472, metadata !"_S_trunc", i64 32} ; [ DW_TAG_enumerator ]
!41 = metadata !{i32 786472, metadata !"_S_ios_openmode_end", i64 65536} ; [ DW_TAG_enumerator ]
!42 = metadata !{i32 786436, metadata !4, metadata !"_Ios_Seekdir", metadata !5, i32 188, i64 17, i64 32, i32 0, i32 0, null, metadata !43, i32 0, i32 0} ; [ DW_TAG_enumeration_type ]
!43 = metadata !{metadata !44, metadata !45, metadata !46, metadata !47}
!44 = metadata !{i32 786472, metadata !"_S_beg", i64 0} ; [ DW_TAG_enumerator ]
!45 = metadata !{i32 786472, metadata !"_S_cur", i64 1} ; [ DW_TAG_enumerator ]
!46 = metadata !{i32 786472, metadata !"_S_end", i64 2} ; [ DW_TAG_enumerator ]
!47 = metadata !{i32 786472, metadata !"_S_ios_seekdir_end", i64 65536} ; [ DW_TAG_enumerator ]
!48 = metadata !{i32 786436, metadata !49, metadata !"event", metadata !5, i32 426, i64 2, i64 2, i32 0, i32 0, null, metadata !861, i32 0, i32 0} ; [ DW_TAG_enumeration_type ]
!49 = metadata !{i32 786434, metadata !4, metadata !"ios_base", metadata !5, i32 206, i64 1728, i64 64, i32 0, i32 0, null, metadata !50, i32 0, metadata !49, null} ; [ DW_TAG_class_type ]
!50 = metadata !{metadata !51, metadata !57, metadata !63, metadata !64, metadata !66, metadata !68, metadata !69, metadata !95, metadata !106, metadata !110, metadata !111, metadata !113, metadata !793, metadata !797, metadata !800, metadata !803, metadata !807, metadata !808, metadata !813, metadata !816, metadata !817, metadata !820, metadata !823, metadata !826, metadata !829, metadata !830, metadata !831, metadata !834, metadata !837, metadata !840, metadata !843, metadata !844, metadata !848, metadata !852, metadata !853, metadata !854, metadata !858}
!51 = metadata !{i32 786445, metadata !5, metadata !"_vptr$ios_base", metadata !5, i32 0, i64 64, i64 0, i64 0, i32 0, metadata !52} ; [ DW_TAG_member ]
!52 = metadata !{i32 786447, null, metadata !"", null, i32 0, i64 64, i64 0, i64 0, i32 0, metadata !53} ; [ DW_TAG_pointer_type ]
!53 = metadata !{i32 786447, null, metadata !"__vtbl_ptr_type", null, i32 0, i64 64, i64 0, i64 0, i32 0, metadata !54} ; [ DW_TAG_pointer_type ]
!54 = metadata !{i32 786453, i32 0, metadata !"", i32 0, i32 0, i64 0, i64 0, i64 0, i32 0, null, metadata !55, i32 0, i32 0} ; [ DW_TAG_subroutine_type ]
!55 = metadata !{metadata !56}
!56 = metadata !{i32 786468, null, metadata !"int", null, i32 0, i64 32, i64 32, i64 0, i32 0, i32 5} ; [ DW_TAG_base_type ]
!57 = metadata !{i32 786445, metadata !49, metadata !"_M_precision", metadata !5, i32 459, i64 64, i64 64, i64 64, i32 2, metadata !58} ; [ DW_TAG_member ]
!58 = metadata !{i32 786454, metadata !59, metadata !"streamsize", metadata !5, i32 97, i64 0, i64 0, i64 0, i32 0, metadata !61} ; [ DW_TAG_typedef ]
!59 = metadata !{i32 786489, null, metadata !"std", metadata !60, i32 69} ; [ DW_TAG_namespace ]
!60 = metadata !{i32 786473, metadata !"C:/Dev/Xilinx/Vivado/2017.4/win64/tools/clang/bin\5C..\5Clib\5Cclang\5C3.1/../../../include/c++/4.5.2\5Cbits/postypes.h", metadata !"D:\5COneDrive\5CUVA\5Ccrypto\5CAES_code\5CVivadoHLS", null} ; [ DW_TAG_file_type ]
!61 = metadata !{i32 786454, null, metadata !"ptrdiff_t", metadata !5, i32 31, i64 0, i64 0, i64 0, i32 0, metadata !62} ; [ DW_TAG_typedef ]
!62 = metadata !{i32 786468, null, metadata !"long long int", null, i32 0, i64 64, i64 64, i64 0, i32 0, i32 5} ; [ DW_TAG_base_type ]
!63 = metadata !{i32 786445, metadata !49, metadata !"_M_width", metadata !5, i32 460, i64 64, i64 64, i64 128, i32 2, metadata !58} ; [ DW_TAG_member ]
!64 = metadata !{i32 786445, metadata !49, metadata !"_M_flags", metadata !5, i32 461, i64 17, i64 32, i64 192, i32 2, metadata !65} ; [ DW_TAG_member ]
!65 = metadata !{i32 786454, metadata !49, metadata !"fmtflags", metadata !5, i32 262, i64 0, i64 0, i64 0, i32 0, metadata !3} ; [ DW_TAG_typedef ]
!66 = metadata !{i32 786445, metadata !49, metadata !"_M_exception", metadata !5, i32 462, i64 17, i64 32, i64 224, i32 2, metadata !67} ; [ DW_TAG_member ]
!67 = metadata !{i32 786454, metadata !49, metadata !"iostate", metadata !5, i32 337, i64 0, i64 0, i64 0, i32 0, metadata !26} ; [ DW_TAG_typedef ]
!68 = metadata !{i32 786445, metadata !49, metadata !"_M_streambuf_state", metadata !5, i32 463, i64 17, i64 32, i64 256, i32 2, metadata !67} ; [ DW_TAG_member ]
!69 = metadata !{i32 786445, metadata !49, metadata !"_M_callbacks", metadata !5, i32 488, i64 64, i64 64, i64 320, i32 2, metadata !70} ; [ DW_TAG_member ]
!70 = metadata !{i32 786447, null, metadata !"", null, i32 0, i64 64, i64 64, i64 0, i32 0, metadata !71} ; [ DW_TAG_pointer_type ]
!71 = metadata !{i32 786434, metadata !49, metadata !"_Callback_list", metadata !5, i32 467, i64 192, i64 64, i32 0, i32 0, null, metadata !72, i32 0, null, null} ; [ DW_TAG_class_type ]
!72 = metadata !{metadata !73, metadata !74, metadata !80, metadata !81, metadata !83, metadata !89, metadata !92}
!73 = metadata !{i32 786445, metadata !71, metadata !"_M_next", metadata !5, i32 470, i64 64, i64 64, i64 0, i32 0, metadata !70} ; [ DW_TAG_member ]
!74 = metadata !{i32 786445, metadata !71, metadata !"_M_fn", metadata !5, i32 471, i64 64, i64 64, i64 64, i32 0, metadata !75} ; [ DW_TAG_member ]
!75 = metadata !{i32 786454, metadata !49, metadata !"event_callback", metadata !5, i32 443, i64 0, i64 0, i64 0, i32 0, metadata !76} ; [ DW_TAG_typedef ]
!76 = metadata !{i32 786447, null, metadata !"", null, i32 0, i64 64, i64 64, i64 0, i32 0, metadata !77} ; [ DW_TAG_pointer_type ]
!77 = metadata !{i32 786453, i32 0, metadata !"", i32 0, i32 0, i64 0, i64 0, i64 0, i32 0, null, metadata !78, i32 0, i32 0} ; [ DW_TAG_subroutine_type ]
!78 = metadata !{null, metadata !48, metadata !79, metadata !56}
!79 = metadata !{i32 786448, null, null, null, i32 0, i64 0, i64 0, i64 0, i32 0, metadata !49} ; [ DW_TAG_reference_type ]
!80 = metadata !{i32 786445, metadata !71, metadata !"_M_index", metadata !5, i32 472, i64 32, i64 32, i64 128, i32 0, metadata !56} ; [ DW_TAG_member ]
!81 = metadata !{i32 786445, metadata !71, metadata !"_M_refcount", metadata !5, i32 473, i64 32, i64 32, i64 160, i32 0, metadata !82} ; [ DW_TAG_member ]
!82 = metadata !{i32 786454, null, metadata !"_Atomic_word", metadata !5, i32 32, i64 0, i64 0, i64 0, i32 0, metadata !56} ; [ DW_TAG_typedef ]
!83 = metadata !{i32 786478, i32 0, metadata !71, metadata !"_Callback_list", metadata !"_Callback_list", metadata !"", metadata !5, i32 475, metadata !84, i1 false, i1 false, i32 0, i32 0, null, i32 256, i1 false, null, null, i32 0, metadata !87, i32 475} ; [ DW_TAG_subprogram ]
!84 = metadata !{i32 786453, i32 0, metadata !"", i32 0, i32 0, i64 0, i64 0, i64 0, i32 0, null, metadata !85, i32 0, i32 0} ; [ DW_TAG_subroutine_type ]
!85 = metadata !{null, metadata !86, metadata !75, metadata !56, metadata !70}
!86 = metadata !{i32 786447, i32 0, metadata !"", i32 0, i32 0, i64 64, i64 64, i64 0, i32 64, metadata !71} ; [ DW_TAG_pointer_type ]
!87 = metadata !{metadata !88}
!88 = metadata !{i32 786468}                      ; [ DW_TAG_base_type ]
!89 = metadata !{i32 786478, i32 0, metadata !71, metadata !"_M_add_reference", metadata !"_M_add_reference", metadata !"_ZNSt8ios_base14_Callback_list16_M_add_referenceEv", metadata !5, i32 480, metadata !90, i1 false, i1 false, i32 0, i32 0, null, i32 256, i1 false, null, null, i32 0, metadata !87, i32 480} ; [ DW_TAG_subprogram ]
!90 = metadata !{i32 786453, i32 0, metadata !"", i32 0, i32 0, i64 0, i64 0, i64 0, i32 0, null, metadata !91, i32 0, i32 0} ; [ DW_TAG_subroutine_type ]
!91 = metadata !{null, metadata !86}
!92 = metadata !{i32 786478, i32 0, metadata !71, metadata !"_M_remove_reference", metadata !"_M_remove_reference", metadata !"_ZNSt8ios_base14_Callback_list19_M_remove_referenceEv", metadata !5, i32 484, metadata !93, i1 false, i1 false, i32 0, i32 0, null, i32 256, i1 false, null, null, i32 0, metadata !87, i32 484} ; [ DW_TAG_subprogram ]
!93 = metadata !{i32 786453, i32 0, metadata !"", i32 0, i32 0, i64 0, i64 0, i64 0, i32 0, null, metadata !94, i32 0, i32 0} ; [ DW_TAG_subroutine_type ]
!94 = metadata !{metadata !56, metadata !86}
!95 = metadata !{i32 786445, metadata !49, metadata !"_M_word_zero", metadata !5, i32 505, i64 128, i64 64, i64 384, i32 2, metadata !96} ; [ DW_TAG_member ]
!96 = metadata !{i32 786434, metadata !49, metadata !"_Words", metadata !5, i32 497, i64 128, i64 64, i32 0, i32 0, null, metadata !97, i32 0, null, null} ; [ DW_TAG_class_type ]
!97 = metadata !{metadata !98, metadata !100, metadata !102}
!98 = metadata !{i32 786445, metadata !96, metadata !"_M_pword", metadata !5, i32 499, i64 64, i64 64, i64 0, i32 0, metadata !99} ; [ DW_TAG_member ]
!99 = metadata !{i32 786447, null, metadata !"", null, i32 0, i64 64, i64 64, i64 0, i32 0, null} ; [ DW_TAG_pointer_type ]
!100 = metadata !{i32 786445, metadata !96, metadata !"_M_iword", metadata !5, i32 500, i64 32, i64 32, i64 64, i32 0, metadata !101} ; [ DW_TAG_member ]
!101 = metadata !{i32 786468, null, metadata !"long int", null, i32 0, i64 32, i64 32, i64 0, i32 0, i32 5} ; [ DW_TAG_base_type ]
!102 = metadata !{i32 786478, i32 0, metadata !96, metadata !"_Words", metadata !"_Words", metadata !"", metadata !5, i32 501, metadata !103, i1 false, i1 false, i32 0, i32 0, null, i32 256, i1 false, null, null, i32 0, metadata !87, i32 501} ; [ DW_TAG_subprogram ]
!103 = metadata !{i32 786453, i32 0, metadata !"", i32 0, i32 0, i64 0, i64 0, i64 0, i32 0, null, metadata !104, i32 0, i32 0} ; [ DW_TAG_subroutine_type ]
!104 = metadata !{null, metadata !105}
!105 = metadata !{i32 786447, i32 0, metadata !"", i32 0, i32 0, i64 64, i64 64, i64 0, i32 64, metadata !96} ; [ DW_TAG_pointer_type ]
!106 = metadata !{i32 786445, metadata !49, metadata !"_M_local_word", metadata !5, i32 510, i64 1024, i64 64, i64 512, i32 2, metadata !107} ; [ DW_TAG_member ]
!107 = metadata !{i32 786433, null, metadata !"", null, i32 0, i64 1024, i64 64, i32 0, i32 0, metadata !96, metadata !108, i32 0, i32 0} ; [ DW_TAG_array_type ]
!108 = metadata !{metadata !109}
!109 = metadata !{i32 786465, i64 0, i64 7}       ; [ DW_TAG_subrange_type ]
!110 = metadata !{i32 786445, metadata !49, metadata !"_M_word_size", metadata !5, i32 513, i64 32, i64 32, i64 1536, i32 2, metadata !56} ; [ DW_TAG_member ]
!111 = metadata !{i32 786445, metadata !49, metadata !"_M_word", metadata !5, i32 514, i64 64, i64 64, i64 1600, i32 2, metadata !112} ; [ DW_TAG_member ]
!112 = metadata !{i32 786447, null, metadata !"", null, i32 0, i64 64, i64 64, i64 0, i32 0, metadata !96} ; [ DW_TAG_pointer_type ]
!113 = metadata !{i32 786445, metadata !49, metadata !"_M_ios_locale", metadata !5, i32 520, i64 64, i64 64, i64 1664, i32 2, metadata !114} ; [ DW_TAG_member ]
!114 = metadata !{i32 786434, metadata !115, metadata !"locale", metadata !116, i32 61, i64 64, i64 64, i32 0, i32 0, null, metadata !117, i32 0, null, null} ; [ DW_TAG_class_type ]
!115 = metadata !{i32 786489, null, metadata !"std", metadata !116, i32 44} ; [ DW_TAG_namespace ]
!116 = metadata !{i32 786473, metadata !"C:/Dev/Xilinx/Vivado/2017.4/win64/tools/clang/bin\5C..\5Clib\5Cclang\5C3.1/../../../include/c++/4.5.2\5Cbits/locale_classes.h", metadata !"D:\5COneDrive\5CUVA\5Ccrypto\5CAES_code\5CVivadoHLS", null} ; [ DW_TAG_file_type ]
!117 = metadata !{metadata !118, metadata !255, metadata !259, metadata !264, metadata !267, metadata !270, metadata !273, metadata !274, metadata !277, metadata !772, metadata !775, metadata !776, metadata !779, metadata !782, metadata !785, metadata !786, metadata !787, metadata !790, metadata !791, metadata !792}
!118 = metadata !{i32 786445, metadata !114, metadata !"_M_impl", metadata !116, i32 278, i64 64, i64 64, i64 0, i32 1, metadata !119} ; [ DW_TAG_member ]
!119 = metadata !{i32 786447, null, metadata !"", null, i32 0, i64 64, i64 64, i64 0, i32 0, metadata !120} ; [ DW_TAG_pointer_type ]
!120 = metadata !{i32 786434, metadata !114, metadata !"_Impl", metadata !116, i32 470, i64 320, i64 64, i32 0, i32 0, null, metadata !121, i32 0, null, null} ; [ DW_TAG_class_type ]
!121 = metadata !{metadata !122, metadata !123, metadata !184, metadata !185, metadata !186, metadata !189, metadata !193, metadata !194, metadata !199, metadata !202, metadata !205, metadata !206, metadata !209, metadata !210, metadata !214, metadata !219, metadata !244, metadata !247, metadata !250, metadata !253, metadata !254}
!122 = metadata !{i32 786445, metadata !120, metadata !"_M_refcount", metadata !116, i32 490, i64 32, i64 32, i64 0, i32 1, metadata !82} ; [ DW_TAG_member ]
!123 = metadata !{i32 786445, metadata !120, metadata !"_M_facets", metadata !116, i32 491, i64 64, i64 64, i64 64, i32 1, metadata !124} ; [ DW_TAG_member ]
!124 = metadata !{i32 786447, null, metadata !"", null, i32 0, i64 64, i64 64, i64 0, i32 0, metadata !125} ; [ DW_TAG_pointer_type ]
!125 = metadata !{i32 786447, null, metadata !"", null, i32 0, i64 64, i64 64, i64 0, i32 0, metadata !126} ; [ DW_TAG_pointer_type ]
!126 = metadata !{i32 786470, null, metadata !"", null, i32 0, i64 0, i64 0, i64 0, i32 0, metadata !127} ; [ DW_TAG_const_type ]
!127 = metadata !{i32 786434, metadata !114, metadata !"facet", metadata !116, i32 336, i64 128, i64 64, i32 0, i32 0, null, metadata !128, i32 0, metadata !127, null} ; [ DW_TAG_class_type ]
!128 = metadata !{metadata !129, metadata !130, metadata !131, metadata !134, metadata !140, metadata !143, metadata !154, metadata !157, metadata !160, metadata !163, metadata !166, metadata !169, metadata !173, metadata !174, metadata !178, metadata !182, metadata !183}
!129 = metadata !{i32 786445, metadata !116, metadata !"_vptr$facet", metadata !116, i32 0, i64 64, i64 0, i64 0, i32 0, metadata !52} ; [ DW_TAG_member ]
!130 = metadata !{i32 786445, metadata !127, metadata !"_M_refcount", metadata !116, i32 342, i64 32, i64 32, i64 64, i32 1, metadata !82} ; [ DW_TAG_member ]
!131 = metadata !{i32 786478, i32 0, metadata !127, metadata !"_S_initialize_once", metadata !"_S_initialize_once", metadata !"_ZNSt6locale5facet18_S_initialize_onceEv", metadata !116, i32 355, metadata !132, i1 false, i1 false, i32 0, i32 0, null, i32 257, i1 false, null, null, i32 0, metadata !87, i32 355} ; [ DW_TAG_subprogram ]
!132 = metadata !{i32 786453, i32 0, metadata !"", i32 0, i32 0, i64 0, i64 0, i64 0, i32 0, null, metadata !133, i32 0, i32 0} ; [ DW_TAG_subroutine_type ]
!133 = metadata !{null}
!134 = metadata !{i32 786478, i32 0, metadata !127, metadata !"facet", metadata !"facet", metadata !"", metadata !116, i32 368, metadata !135, i1 false, i1 false, i32 0, i32 0, null, i32 386, i1 false, null, null, i32 0, metadata !87, i32 368} ; [ DW_TAG_subprogram ]
!135 = metadata !{i32 786453, i32 0, metadata !"", i32 0, i32 0, i64 0, i64 0, i64 0, i32 0, null, metadata !136, i32 0, i32 0} ; [ DW_TAG_subroutine_type ]
!136 = metadata !{null, metadata !137, metadata !138}
!137 = metadata !{i32 786447, i32 0, metadata !"", i32 0, i32 0, i64 64, i64 64, i64 0, i32 64, metadata !127} ; [ DW_TAG_pointer_type ]
!138 = metadata !{i32 786454, null, metadata !"size_t", metadata !116, i32 35, i64 0, i64 0, i64 0, i32 0, metadata !139} ; [ DW_TAG_typedef ]
!139 = metadata !{i32 786468, null, metadata !"long long unsigned int", null, i32 0, i64 64, i64 64, i64 0, i32 0, i32 7} ; [ DW_TAG_base_type ]
!140 = metadata !{i32 786478, i32 0, metadata !127, metadata !"~facet", metadata !"~facet", metadata !"", metadata !116, i32 373, metadata !141, i1 false, i1 false, i32 1, i32 0, metadata !127, i32 258, i1 false, null, null, i32 0, metadata !87, i32 373} ; [ DW_TAG_subprogram ]
!141 = metadata !{i32 786453, i32 0, metadata !"", i32 0, i32 0, i64 0, i64 0, i64 0, i32 0, null, metadata !142, i32 0, i32 0} ; [ DW_TAG_subroutine_type ]
!142 = metadata !{null, metadata !137}
!143 = metadata !{i32 786478, i32 0, metadata !127, metadata !"_S_create_c_locale", metadata !"_S_create_c_locale", metadata !"_ZNSt6locale5facet18_S_create_c_localeERPiPKcS1_", metadata !116, i32 376, metadata !144, i1 false, i1 false, i32 0, i32 0, null, i32 258, i1 false, null, null, i32 0, metadata !87, i32 376} ; [ DW_TAG_subprogram ]
!144 = metadata !{i32 786453, i32 0, metadata !"", i32 0, i32 0, i64 0, i64 0, i64 0, i32 0, null, metadata !145, i32 0, i32 0} ; [ DW_TAG_subroutine_type ]
!145 = metadata !{null, metadata !146, metadata !151, metadata !147}
!146 = metadata !{i32 786448, null, null, null, i32 0, i64 0, i64 0, i64 0, i32 0, metadata !147} ; [ DW_TAG_reference_type ]
!147 = metadata !{i32 786454, metadata !148, metadata !"__c_locale", metadata !116, i32 48, i64 0, i64 0, i64 0, i32 0, metadata !150} ; [ DW_TAG_typedef ]
!148 = metadata !{i32 786489, null, metadata !"std", metadata !149, i32 46} ; [ DW_TAG_namespace ]
!149 = metadata !{i32 786473, metadata !"C:/Dev/Xilinx/Vivado/2017.4/win64/tools/clang/bin\5C..\5Clib\5Cclang\5C3.1/../../../include/c++/4.5.2/x86_64-w64-mingw32\5Cbits/c++locale.h", metadata !"D:\5COneDrive\5CUVA\5Ccrypto\5CAES_code\5CVivadoHLS", null} ; [ DW_TAG_file_type ]
!150 = metadata !{i32 786447, null, metadata !"", null, i32 0, i64 64, i64 64, i64 0, i32 0, metadata !56} ; [ DW_TAG_pointer_type ]
!151 = metadata !{i32 786447, null, metadata !"", null, i32 0, i64 64, i64 64, i64 0, i32 0, metadata !152} ; [ DW_TAG_pointer_type ]
!152 = metadata !{i32 786470, null, metadata !"", null, i32 0, i64 0, i64 0, i64 0, i32 0, metadata !153} ; [ DW_TAG_const_type ]
!153 = metadata !{i32 786468, null, metadata !"char", null, i32 0, i64 8, i64 8, i64 0, i32 0, i32 6} ; [ DW_TAG_base_type ]
!154 = metadata !{i32 786478, i32 0, metadata !127, metadata !"_S_clone_c_locale", metadata !"_S_clone_c_locale", metadata !"_ZNSt6locale5facet17_S_clone_c_localeERPi", metadata !116, i32 380, metadata !155, i1 false, i1 false, i32 0, i32 0, null, i32 258, i1 false, null, null, i32 0, metadata !87, i32 380} ; [ DW_TAG_subprogram ]
!155 = metadata !{i32 786453, i32 0, metadata !"", i32 0, i32 0, i64 0, i64 0, i64 0, i32 0, null, metadata !156, i32 0, i32 0} ; [ DW_TAG_subroutine_type ]
!156 = metadata !{metadata !147, metadata !146}
!157 = metadata !{i32 786478, i32 0, metadata !127, metadata !"_S_destroy_c_locale", metadata !"_S_destroy_c_locale", metadata !"_ZNSt6locale5facet19_S_destroy_c_localeERPi", metadata !116, i32 383, metadata !158, i1 false, i1 false, i32 0, i32 0, null, i32 258, i1 false, null, null, i32 0, metadata !87, i32 383} ; [ DW_TAG_subprogram ]
!158 = metadata !{i32 786453, i32 0, metadata !"", i32 0, i32 0, i64 0, i64 0, i64 0, i32 0, null, metadata !159, i32 0, i32 0} ; [ DW_TAG_subroutine_type ]
!159 = metadata !{null, metadata !146}
!160 = metadata !{i32 786478, i32 0, metadata !127, metadata !"_S_lc_ctype_c_locale", metadata !"_S_lc_ctype_c_locale", metadata !"_ZNSt6locale5facet20_S_lc_ctype_c_localeEPiPKc", metadata !116, i32 386, metadata !161, i1 false, i1 false, i32 0, i32 0, null, i32 258, i1 false, null, null, i32 0, metadata !87, i32 386} ; [ DW_TAG_subprogram ]
!161 = metadata !{i32 786453, i32 0, metadata !"", i32 0, i32 0, i64 0, i64 0, i64 0, i32 0, null, metadata !162, i32 0, i32 0} ; [ DW_TAG_subroutine_type ]
!162 = metadata !{metadata !147, metadata !147, metadata !151}
!163 = metadata !{i32 786478, i32 0, metadata !127, metadata !"_S_get_c_locale", metadata !"_S_get_c_locale", metadata !"_ZNSt6locale5facet15_S_get_c_localeEv", metadata !116, i32 391, metadata !164, i1 false, i1 false, i32 0, i32 0, null, i32 258, i1 false, null, null, i32 0, metadata !87, i32 391} ; [ DW_TAG_subprogram ]
!164 = metadata !{i32 786453, i32 0, metadata !"", i32 0, i32 0, i64 0, i64 0, i64 0, i32 0, null, metadata !165, i32 0, i32 0} ; [ DW_TAG_subroutine_type ]
!165 = metadata !{metadata !147}
!166 = metadata !{i32 786478, i32 0, metadata !127, metadata !"_S_get_c_name", metadata !"_S_get_c_name", metadata !"_ZNSt6locale5facet13_S_get_c_nameEv", metadata !116, i32 394, metadata !167, i1 false, i1 false, i32 0, i32 0, null, i32 258, i1 false, null, null, i32 0, metadata !87, i32 394} ; [ DW_TAG_subprogram ]
!167 = metadata !{i32 786453, i32 0, metadata !"", i32 0, i32 0, i64 0, i64 0, i64 0, i32 0, null, metadata !168, i32 0, i32 0} ; [ DW_TAG_subroutine_type ]
!168 = metadata !{metadata !151}
!169 = metadata !{i32 786478, i32 0, metadata !127, metadata !"_M_add_reference", metadata !"_M_add_reference", metadata !"_ZNKSt6locale5facet16_M_add_referenceEv", metadata !116, i32 398, metadata !170, i1 false, i1 false, i32 0, i32 0, null, i32 257, i1 false, null, null, i32 0, metadata !87, i32 398} ; [ DW_TAG_subprogram ]
!170 = metadata !{i32 786453, i32 0, metadata !"", i32 0, i32 0, i64 0, i64 0, i64 0, i32 0, null, metadata !171, i32 0, i32 0} ; [ DW_TAG_subroutine_type ]
!171 = metadata !{null, metadata !172}
!172 = metadata !{i32 786447, i32 0, metadata !"", i32 0, i32 0, i64 64, i64 64, i64 0, i32 64, metadata !126} ; [ DW_TAG_pointer_type ]
!173 = metadata !{i32 786478, i32 0, metadata !127, metadata !"_M_remove_reference", metadata !"_M_remove_reference", metadata !"_ZNKSt6locale5facet19_M_remove_referenceEv", metadata !116, i32 402, metadata !170, i1 false, i1 false, i32 0, i32 0, null, i32 257, i1 false, null, null, i32 0, metadata !87, i32 402} ; [ DW_TAG_subprogram ]
!174 = metadata !{i32 786478, i32 0, metadata !127, metadata !"facet", metadata !"facet", metadata !"", metadata !116, i32 413, metadata !175, i1 false, i1 false, i32 0, i32 0, null, i32 257, i1 false, null, null, i32 0, metadata !87, i32 413} ; [ DW_TAG_subprogram ]
!175 = metadata !{i32 786453, i32 0, metadata !"", i32 0, i32 0, i64 0, i64 0, i64 0, i32 0, null, metadata !176, i32 0, i32 0} ; [ DW_TAG_subroutine_type ]
!176 = metadata !{null, metadata !137, metadata !177}
!177 = metadata !{i32 786448, null, null, null, i32 0, i64 0, i64 0, i64 0, i32 0, metadata !126} ; [ DW_TAG_reference_type ]
!178 = metadata !{i32 786478, i32 0, metadata !127, metadata !"operator=", metadata !"operator=", metadata !"_ZNSt6locale5facetaSERKS0_", metadata !116, i32 416, metadata !179, i1 false, i1 false, i32 0, i32 0, null, i32 257, i1 false, null, null, i32 0, metadata !87, i32 416} ; [ DW_TAG_subprogram ]
!179 = metadata !{i32 786453, i32 0, metadata !"", i32 0, i32 0, i64 0, i64 0, i64 0, i32 0, null, metadata !180, i32 0, i32 0} ; [ DW_TAG_subroutine_type ]
!180 = metadata !{metadata !181, metadata !137, metadata !177}
!181 = metadata !{i32 786448, null, null, null, i32 0, i64 0, i64 0, i64 0, i32 0, metadata !127} ; [ DW_TAG_reference_type ]
!182 = metadata !{i32 786474, metadata !127, null, metadata !116, i32 0, i64 0, i64 0, i64 0, i32 0, metadata !120} ; [ DW_TAG_friend ]
!183 = metadata !{i32 786474, metadata !127, null, metadata !116, i32 0, i64 0, i64 0, i64 0, i32 0, metadata !114} ; [ DW_TAG_friend ]
!184 = metadata !{i32 786445, metadata !120, metadata !"_M_facets_size", metadata !116, i32 492, i64 64, i64 64, i64 128, i32 1, metadata !138} ; [ DW_TAG_member ]
!185 = metadata !{i32 786445, metadata !120, metadata !"_M_caches", metadata !116, i32 493, i64 64, i64 64, i64 192, i32 1, metadata !124} ; [ DW_TAG_member ]
!186 = metadata !{i32 786445, metadata !120, metadata !"_M_names", metadata !116, i32 494, i64 64, i64 64, i64 256, i32 1, metadata !187} ; [ DW_TAG_member ]
!187 = metadata !{i32 786447, null, metadata !"", null, i32 0, i64 64, i64 64, i64 0, i32 0, metadata !188} ; [ DW_TAG_pointer_type ]
!188 = metadata !{i32 786447, null, metadata !"", null, i32 0, i64 64, i64 64, i64 0, i32 0, metadata !153} ; [ DW_TAG_pointer_type ]
!189 = metadata !{i32 786478, i32 0, metadata !120, metadata !"_M_add_reference", metadata !"_M_add_reference", metadata !"_ZNSt6locale5_Impl16_M_add_referenceEv", metadata !116, i32 504, metadata !190, i1 false, i1 false, i32 0, i32 0, null, i32 257, i1 false, null, null, i32 0, metadata !87, i32 504} ; [ DW_TAG_subprogram ]
!190 = metadata !{i32 786453, i32 0, metadata !"", i32 0, i32 0, i64 0, i64 0, i64 0, i32 0, null, metadata !191, i32 0, i32 0} ; [ DW_TAG_subroutine_type ]
!191 = metadata !{null, metadata !192}
!192 = metadata !{i32 786447, i32 0, metadata !"", i32 0, i32 0, i64 64, i64 64, i64 0, i32 64, metadata !120} ; [ DW_TAG_pointer_type ]
!193 = metadata !{i32 786478, i32 0, metadata !120, metadata !"_M_remove_reference", metadata !"_M_remove_reference", metadata !"_ZNSt6locale5_Impl19_M_remove_referenceEv", metadata !116, i32 508, metadata !190, i1 false, i1 false, i32 0, i32 0, null, i32 257, i1 false, null, null, i32 0, metadata !87, i32 508} ; [ DW_TAG_subprogram ]
!194 = metadata !{i32 786478, i32 0, metadata !120, metadata !"_Impl", metadata !"_Impl", metadata !"", metadata !116, i32 519, metadata !195, i1 false, i1 false, i32 0, i32 0, null, i32 257, i1 false, null, null, i32 0, metadata !87, i32 519} ; [ DW_TAG_subprogram ]
!195 = metadata !{i32 786453, i32 0, metadata !"", i32 0, i32 0, i64 0, i64 0, i64 0, i32 0, null, metadata !196, i32 0, i32 0} ; [ DW_TAG_subroutine_type ]
!196 = metadata !{null, metadata !192, metadata !197, metadata !138}
!197 = metadata !{i32 786448, null, null, null, i32 0, i64 0, i64 0, i64 0, i32 0, metadata !198} ; [ DW_TAG_reference_type ]
!198 = metadata !{i32 786470, null, metadata !"", null, i32 0, i64 0, i64 0, i64 0, i32 0, metadata !120} ; [ DW_TAG_const_type ]
!199 = metadata !{i32 786478, i32 0, metadata !120, metadata !"_Impl", metadata !"_Impl", metadata !"", metadata !116, i32 520, metadata !200, i1 false, i1 false, i32 0, i32 0, null, i32 257, i1 false, null, null, i32 0, metadata !87, i32 520} ; [ DW_TAG_subprogram ]
!200 = metadata !{i32 786453, i32 0, metadata !"", i32 0, i32 0, i64 0, i64 0, i64 0, i32 0, null, metadata !201, i32 0, i32 0} ; [ DW_TAG_subroutine_type ]
!201 = metadata !{null, metadata !192, metadata !151, metadata !138}
!202 = metadata !{i32 786478, i32 0, metadata !120, metadata !"_Impl", metadata !"_Impl", metadata !"", metadata !116, i32 521, metadata !203, i1 false, i1 false, i32 0, i32 0, null, i32 257, i1 false, null, null, i32 0, metadata !87, i32 521} ; [ DW_TAG_subprogram ]
!203 = metadata !{i32 786453, i32 0, metadata !"", i32 0, i32 0, i64 0, i64 0, i64 0, i32 0, null, metadata !204, i32 0, i32 0} ; [ DW_TAG_subroutine_type ]
!204 = metadata !{null, metadata !192, metadata !138}
!205 = metadata !{i32 786478, i32 0, metadata !120, metadata !"~_Impl", metadata !"~_Impl", metadata !"", metadata !116, i32 523, metadata !190, i1 false, i1 false, i32 0, i32 0, null, i32 257, i1 false, null, null, i32 0, metadata !87, i32 523} ; [ DW_TAG_subprogram ]
!206 = metadata !{i32 786478, i32 0, metadata !120, metadata !"_Impl", metadata !"_Impl", metadata !"", metadata !116, i32 525, metadata !207, i1 false, i1 false, i32 0, i32 0, null, i32 257, i1 false, null, null, i32 0, metadata !87, i32 525} ; [ DW_TAG_subprogram ]
!207 = metadata !{i32 786453, i32 0, metadata !"", i32 0, i32 0, i64 0, i64 0, i64 0, i32 0, null, metadata !208, i32 0, i32 0} ; [ DW_TAG_subroutine_type ]
!208 = metadata !{null, metadata !192, metadata !197}
!209 = metadata !{i32 786478, i32 0, metadata !120, metadata !"operator=", metadata !"operator=", metadata !"_ZNSt6locale5_ImplaSERKS0_", metadata !116, i32 528, metadata !207, i1 false, i1 false, i32 0, i32 0, null, i32 257, i1 false, null, null, i32 0, metadata !87, i32 528} ; [ DW_TAG_subprogram ]
!210 = metadata !{i32 786478, i32 0, metadata !120, metadata !"_M_check_same_name", metadata !"_M_check_same_name", metadata !"_ZNSt6locale5_Impl18_M_check_same_nameEv", metadata !116, i32 531, metadata !211, i1 false, i1 false, i32 0, i32 0, null, i32 257, i1 false, null, null, i32 0, metadata !87, i32 531} ; [ DW_TAG_subprogram ]
!211 = metadata !{i32 786453, i32 0, metadata !"", i32 0, i32 0, i64 0, i64 0, i64 0, i32 0, null, metadata !212, i32 0, i32 0} ; [ DW_TAG_subroutine_type ]
!212 = metadata !{metadata !213, metadata !192}
!213 = metadata !{i32 786468, null, metadata !"bool", null, i32 0, i64 8, i64 8, i64 0, i32 0, i32 2} ; [ DW_TAG_base_type ]
!214 = metadata !{i32 786478, i32 0, metadata !120, metadata !"_M_replace_categories", metadata !"_M_replace_categories", metadata !"_ZNSt6locale5_Impl21_M_replace_categoriesEPKS0_i", metadata !116, i32 542, metadata !215, i1 false, i1 false, i32 0, i32 0, null, i32 257, i1 false, null, null, i32 0, metadata !87, i32 542} ; [ DW_TAG_subprogram ]
!215 = metadata !{i32 786453, i32 0, metadata !"", i32 0, i32 0, i64 0, i64 0, i64 0, i32 0, null, metadata !216, i32 0, i32 0} ; [ DW_TAG_subroutine_type ]
!216 = metadata !{null, metadata !192, metadata !217, metadata !218}
!217 = metadata !{i32 786447, null, metadata !"", null, i32 0, i64 64, i64 64, i64 0, i32 0, metadata !198} ; [ DW_TAG_pointer_type ]
!218 = metadata !{i32 786454, metadata !114, metadata !"category", metadata !116, i32 66, i64 0, i64 0, i64 0, i32 0, metadata !56} ; [ DW_TAG_typedef ]
!219 = metadata !{i32 786478, i32 0, metadata !120, metadata !"_M_replace_category", metadata !"_M_replace_category", metadata !"_ZNSt6locale5_Impl19_M_replace_categoryEPKS0_PKPKNS_2idE", metadata !116, i32 545, metadata !220, i1 false, i1 false, i32 0, i32 0, null, i32 257, i1 false, null, null, i32 0, metadata !87, i32 545} ; [ DW_TAG_subprogram ]
!220 = metadata !{i32 786453, i32 0, metadata !"", i32 0, i32 0, i64 0, i64 0, i64 0, i32 0, null, metadata !221, i32 0, i32 0} ; [ DW_TAG_subroutine_type ]
!221 = metadata !{null, metadata !192, metadata !217, metadata !222}
!222 = metadata !{i32 786447, null, metadata !"", null, i32 0, i64 64, i64 64, i64 0, i32 0, metadata !223} ; [ DW_TAG_pointer_type ]
!223 = metadata !{i32 786470, null, metadata !"", null, i32 0, i64 0, i64 0, i64 0, i32 0, metadata !224} ; [ DW_TAG_const_type ]
!224 = metadata !{i32 786447, null, metadata !"", null, i32 0, i64 64, i64 64, i64 0, i32 0, metadata !225} ; [ DW_TAG_pointer_type ]
!225 = metadata !{i32 786470, null, metadata !"", null, i32 0, i64 0, i64 0, i64 0, i32 0, metadata !226} ; [ DW_TAG_const_type ]
!226 = metadata !{i32 786434, metadata !114, metadata !"id", metadata !116, i32 431, i64 64, i64 64, i32 0, i32 0, null, metadata !227, i32 0, null, null} ; [ DW_TAG_class_type ]
!227 = metadata !{metadata !228, metadata !229, metadata !234, metadata !235, metadata !238, metadata !242, metadata !243}
!228 = metadata !{i32 786445, metadata !226, metadata !"_M_index", metadata !116, i32 448, i64 64, i64 64, i64 0, i32 1, metadata !138} ; [ DW_TAG_member ]
!229 = metadata !{i32 786478, i32 0, metadata !226, metadata !"operator=", metadata !"operator=", metadata !"_ZNSt6locale2idaSERKS0_", metadata !116, i32 454, metadata !230, i1 false, i1 false, i32 0, i32 0, null, i32 257, i1 false, null, null, i32 0, metadata !87, i32 454} ; [ DW_TAG_subprogram ]
!230 = metadata !{i32 786453, i32 0, metadata !"", i32 0, i32 0, i64 0, i64 0, i64 0, i32 0, null, metadata !231, i32 0, i32 0} ; [ DW_TAG_subroutine_type ]
!231 = metadata !{null, metadata !232, metadata !233}
!232 = metadata !{i32 786447, i32 0, metadata !"", i32 0, i32 0, i64 64, i64 64, i64 0, i32 64, metadata !226} ; [ DW_TAG_pointer_type ]
!233 = metadata !{i32 786448, null, null, null, i32 0, i64 0, i64 0, i64 0, i32 0, metadata !225} ; [ DW_TAG_reference_type ]
!234 = metadata !{i32 786478, i32 0, metadata !226, metadata !"id", metadata !"id", metadata !"", metadata !116, i32 456, metadata !230, i1 false, i1 false, i32 0, i32 0, null, i32 257, i1 false, null, null, i32 0, metadata !87, i32 456} ; [ DW_TAG_subprogram ]
!235 = metadata !{i32 786478, i32 0, metadata !226, metadata !"id", metadata !"id", metadata !"", metadata !116, i32 462, metadata !236, i1 false, i1 false, i32 0, i32 0, null, i32 256, i1 false, null, null, i32 0, metadata !87, i32 462} ; [ DW_TAG_subprogram ]
!236 = metadata !{i32 786453, i32 0, metadata !"", i32 0, i32 0, i64 0, i64 0, i64 0, i32 0, null, metadata !237, i32 0, i32 0} ; [ DW_TAG_subroutine_type ]
!237 = metadata !{null, metadata !232}
!238 = metadata !{i32 786478, i32 0, metadata !226, metadata !"_M_id", metadata !"_M_id", metadata !"_ZNKSt6locale2id5_M_idEv", metadata !116, i32 465, metadata !239, i1 false, i1 false, i32 0, i32 0, null, i32 256, i1 false, null, null, i32 0, metadata !87, i32 465} ; [ DW_TAG_subprogram ]
!239 = metadata !{i32 786453, i32 0, metadata !"", i32 0, i32 0, i64 0, i64 0, i64 0, i32 0, null, metadata !240, i32 0, i32 0} ; [ DW_TAG_subroutine_type ]
!240 = metadata !{metadata !138, metadata !241}
!241 = metadata !{i32 786447, i32 0, metadata !"", i32 0, i32 0, i64 64, i64 64, i64 0, i32 64, metadata !225} ; [ DW_TAG_pointer_type ]
!242 = metadata !{i32 786474, metadata !226, null, metadata !116, i32 0, i64 0, i64 0, i64 0, i32 0, metadata !120} ; [ DW_TAG_friend ]
!243 = metadata !{i32 786474, metadata !226, null, metadata !116, i32 0, i64 0, i64 0, i64 0, i32 0, metadata !114} ; [ DW_TAG_friend ]
!244 = metadata !{i32 786478, i32 0, metadata !120, metadata !"_M_replace_facet", metadata !"_M_replace_facet", metadata !"_ZNSt6locale5_Impl16_M_replace_facetEPKS0_PKNS_2idE", metadata !116, i32 548, metadata !245, i1 false, i1 false, i32 0, i32 0, null, i32 257, i1 false, null, null, i32 0, metadata !87, i32 548} ; [ DW_TAG_subprogram ]
!245 = metadata !{i32 786453, i32 0, metadata !"", i32 0, i32 0, i64 0, i64 0, i64 0, i32 0, null, metadata !246, i32 0, i32 0} ; [ DW_TAG_subroutine_type ]
!246 = metadata !{null, metadata !192, metadata !217, metadata !224}
!247 = metadata !{i32 786478, i32 0, metadata !120, metadata !"_M_install_facet", metadata !"_M_install_facet", metadata !"_ZNSt6locale5_Impl16_M_install_facetEPKNS_2idEPKNS_5facetE", metadata !116, i32 551, metadata !248, i1 false, i1 false, i32 0, i32 0, null, i32 257, i1 false, null, null, i32 0, metadata !87, i32 551} ; [ DW_TAG_subprogram ]
!248 = metadata !{i32 786453, i32 0, metadata !"", i32 0, i32 0, i64 0, i64 0, i64 0, i32 0, null, metadata !249, i32 0, i32 0} ; [ DW_TAG_subroutine_type ]
!249 = metadata !{null, metadata !192, metadata !224, metadata !125}
!250 = metadata !{i32 786478, i32 0, metadata !120, metadata !"_M_install_cache", metadata !"_M_install_cache", metadata !"_ZNSt6locale5_Impl16_M_install_cacheEPKNS_5facetEy", metadata !116, i32 559, metadata !251, i1 false, i1 false, i32 0, i32 0, null, i32 257, i1 false, null, null, i32 0, metadata !87, i32 559} ; [ DW_TAG_subprogram ]
!251 = metadata !{i32 786453, i32 0, metadata !"", i32 0, i32 0, i64 0, i64 0, i64 0, i32 0, null, metadata !252, i32 0, i32 0} ; [ DW_TAG_subroutine_type ]
!252 = metadata !{null, metadata !192, metadata !125, metadata !138}
!253 = metadata !{i32 786474, metadata !120, null, metadata !116, i32 0, i64 0, i64 0, i64 0, i32 0, metadata !127} ; [ DW_TAG_friend ]
!254 = metadata !{i32 786474, metadata !120, null, metadata !116, i32 0, i64 0, i64 0, i64 0, i32 0, metadata !114} ; [ DW_TAG_friend ]
!255 = metadata !{i32 786478, i32 0, metadata !114, metadata !"locale", metadata !"locale", metadata !"", metadata !116, i32 116, metadata !256, i1 false, i1 false, i32 0, i32 0, null, i32 256, i1 false, null, null, i32 0, metadata !87, i32 116} ; [ DW_TAG_subprogram ]
!256 = metadata !{i32 786453, i32 0, metadata !"", i32 0, i32 0, i64 0, i64 0, i64 0, i32 0, null, metadata !257, i32 0, i32 0} ; [ DW_TAG_subroutine_type ]
!257 = metadata !{null, metadata !258}
!258 = metadata !{i32 786447, i32 0, metadata !"", i32 0, i32 0, i64 64, i64 64, i64 0, i32 64, metadata !114} ; [ DW_TAG_pointer_type ]
!259 = metadata !{i32 786478, i32 0, metadata !114, metadata !"locale", metadata !"locale", metadata !"", metadata !116, i32 125, metadata !260, i1 false, i1 false, i32 0, i32 0, null, i32 256, i1 false, null, null, i32 0, metadata !87, i32 125} ; [ DW_TAG_subprogram ]
!260 = metadata !{i32 786453, i32 0, metadata !"", i32 0, i32 0, i64 0, i64 0, i64 0, i32 0, null, metadata !261, i32 0, i32 0} ; [ DW_TAG_subroutine_type ]
!261 = metadata !{null, metadata !258, metadata !262}
!262 = metadata !{i32 786448, null, null, null, i32 0, i64 0, i64 0, i64 0, i32 0, metadata !263} ; [ DW_TAG_reference_type ]
!263 = metadata !{i32 786470, null, metadata !"", null, i32 0, i64 0, i64 0, i64 0, i32 0, metadata !114} ; [ DW_TAG_const_type ]
!264 = metadata !{i32 786478, i32 0, metadata !114, metadata !"locale", metadata !"locale", metadata !"", metadata !116, i32 136, metadata !265, i1 false, i1 false, i32 0, i32 0, null, i32 384, i1 false, null, null, i32 0, metadata !87, i32 136} ; [ DW_TAG_subprogram ]
!265 = metadata !{i32 786453, i32 0, metadata !"", i32 0, i32 0, i64 0, i64 0, i64 0, i32 0, null, metadata !266, i32 0, i32 0} ; [ DW_TAG_subroutine_type ]
!266 = metadata !{null, metadata !258, metadata !151}
!267 = metadata !{i32 786478, i32 0, metadata !114, metadata !"locale", metadata !"locale", metadata !"", metadata !116, i32 150, metadata !268, i1 false, i1 false, i32 0, i32 0, null, i32 256, i1 false, null, null, i32 0, metadata !87, i32 150} ; [ DW_TAG_subprogram ]
!268 = metadata !{i32 786453, i32 0, metadata !"", i32 0, i32 0, i64 0, i64 0, i64 0, i32 0, null, metadata !269, i32 0, i32 0} ; [ DW_TAG_subroutine_type ]
!269 = metadata !{null, metadata !258, metadata !262, metadata !151, metadata !218}
!270 = metadata !{i32 786478, i32 0, metadata !114, metadata !"locale", metadata !"locale", metadata !"", metadata !116, i32 163, metadata !271, i1 false, i1 false, i32 0, i32 0, null, i32 256, i1 false, null, null, i32 0, metadata !87, i32 163} ; [ DW_TAG_subprogram ]
!271 = metadata !{i32 786453, i32 0, metadata !"", i32 0, i32 0, i64 0, i64 0, i64 0, i32 0, null, metadata !272, i32 0, i32 0} ; [ DW_TAG_subroutine_type ]
!272 = metadata !{null, metadata !258, metadata !262, metadata !262, metadata !218}
!273 = metadata !{i32 786478, i32 0, metadata !114, metadata !"~locale", metadata !"~locale", metadata !"", metadata !116, i32 179, metadata !256, i1 false, i1 false, i32 0, i32 0, null, i32 256, i1 false, null, null, i32 0, metadata !87, i32 179} ; [ DW_TAG_subprogram ]
!274 = metadata !{i32 786478, i32 0, metadata !114, metadata !"operator=", metadata !"operator=", metadata !"_ZNSt6localeaSERKS_", metadata !116, i32 190, metadata !275, i1 false, i1 false, i32 0, i32 0, null, i32 256, i1 false, null, null, i32 0, metadata !87, i32 190} ; [ DW_TAG_subprogram ]
!275 = metadata !{i32 786453, i32 0, metadata !"", i32 0, i32 0, i64 0, i64 0, i64 0, i32 0, null, metadata !276, i32 0, i32 0} ; [ DW_TAG_subroutine_type ]
!276 = metadata !{metadata !262, metadata !258, metadata !262}
!277 = metadata !{i32 786478, i32 0, metadata !114, metadata !"name", metadata !"name", metadata !"_ZNKSt6locale4nameEv", metadata !116, i32 214, metadata !278, i1 false, i1 false, i32 0, i32 0, null, i32 256, i1 false, null, null, i32 0, metadata !87, i32 214} ; [ DW_TAG_subprogram ]
!278 = metadata !{i32 786453, i32 0, metadata !"", i32 0, i32 0, i64 0, i64 0, i64 0, i32 0, null, metadata !279, i32 0, i32 0} ; [ DW_TAG_subroutine_type ]
!279 = metadata !{metadata !280, metadata !771}
!280 = metadata !{i32 786454, metadata !281, metadata !"string", metadata !116, i32 62, i64 0, i64 0, i64 0, i32 0, metadata !283} ; [ DW_TAG_typedef ]
!281 = metadata !{i32 786489, null, metadata !"std", metadata !282, i32 42} ; [ DW_TAG_namespace ]
!282 = metadata !{i32 786473, metadata !"C:/Dev/Xilinx/Vivado/2017.4/win64/tools/clang/bin\5C..\5Clib\5Cclang\5C3.1/../../../include/c++/4.5.2\5Cbits/stringfwd.h", metadata !"D:\5COneDrive\5CUVA\5Ccrypto\5CAES_code\5CVivadoHLS", null} ; [ DW_TAG_file_type ]
!283 = metadata !{i32 786434, metadata !281, metadata !"basic_string<char>", metadata !284, i32 1132, i64 64, i64 64, i32 0, i32 0, null, metadata !285, i32 0, null, metadata !715} ; [ DW_TAG_class_type ]
!284 = metadata !{i32 786473, metadata !"C:/Dev/Xilinx/Vivado/2017.4/win64/tools/clang/bin\5C..\5Clib\5Cclang\5C3.1/../../../include/c++/4.5.2\5Cbits/basic_string.tcc", metadata !"D:\5COneDrive\5CUVA\5Ccrypto\5CAES_code\5CVivadoHLS", null} ; [ DW_TAG_file_type ]
!285 = metadata !{metadata !286, metadata !359, metadata !364, metadata !368, metadata !417, metadata !423, metadata !424, metadata !427, metadata !430, metadata !433, metadata !436, metadata !439, metadata !442, metadata !443, metadata !446, metadata !449, metadata !454, metadata !457, metadata !460, metadata !463, metadata !466, metadata !467, metadata !468, metadata !469, metadata !472, metadata !476, metadata !479, metadata !482, metadata !485, metadata !488, metadata !491, metadata !492, metadata !496, metadata !499, metadata !502, metadata !505, metadata !508, metadata !509, metadata !510, metadata !515, metadata !520, metadata !521, metadata !522, metadata !525, metadata !526, metadata !527, metadata !530, metadata !533, metadata !534, metadata !535, metadata !536, metadata !539, metadata !544, metadata !549, metadata !550, metadata !551, metadata !552, metadata !553, metadata !554, metadata !555, metadata !558, metadata !561, metadata !562, metadata !565, metadata !568, metadata !569, metadata !570, metadata !571, metadata !572, metadata !573, metadata !576, metadata !579, metadata !582, metadata !585, metadata !588, metadata !591, metadata !594, metadata !597, metadata !600, metadata !603, metadata !606, metadata !609, metadata !612, metadata !615, metadata !618, metadata !621, metadata !624, metadata !627, metadata !630, metadata !633, metadata !636, metadata !639, metadata !642, metadata !643, metadata !644, metadata !647, metadata !648, metadata !651, metadata !654, metadata !657, metadata !658, metadata !662, metadata !665, metadata !668, metadata !671, metadata !674, metadata !675, metadata !676, metadata !677, metadata !678, metadata !679, metadata !680, metadata !681, metadata !682, metadata !683, metadata !684, metadata !685, metadata !686, metadata !687, metadata !688, metadata !689, metadata !690, metadata !691, metadata !692, metadata !693, metadata !694, metadata !697, metadata !700, metadata !703, metadata !706, metadata !709, metadata !712}
!286 = metadata !{i32 786445, metadata !283, metadata !"_M_dataplus", metadata !287, i32 274, i64 64, i64 64, i64 0, i32 1, metadata !288} ; [ DW_TAG_member ]
!287 = metadata !{i32 786473, metadata !"C:/Dev/Xilinx/Vivado/2017.4/win64/tools/clang/bin\5C..\5Clib\5Cclang\5C3.1/../../../include/c++/4.5.2\5Cbits/basic_string.h", metadata !"D:\5COneDrive\5CUVA\5Ccrypto\5CAES_code\5CVivadoHLS", null} ; [ DW_TAG_file_type ]
!288 = metadata !{i32 786434, metadata !283, metadata !"_Alloc_hider", metadata !287, i32 257, i64 64, i64 64, i32 0, i32 0, null, metadata !289, i32 0, null, null} ; [ DW_TAG_class_type ]
!289 = metadata !{metadata !290, metadata !354, metadata !355}
!290 = metadata !{i32 786460, metadata !288, null, metadata !287, i32 0, i64 0, i64 0, i64 0, i32 0, metadata !291} ; [ DW_TAG_inheritance ]
!291 = metadata !{i32 786434, metadata !281, metadata !"allocator<char>", metadata !292, i32 138, i64 8, i64 8, i32 0, i32 0, null, metadata !293, i32 0, null, metadata !352} ; [ DW_TAG_class_type ]
!292 = metadata !{i32 786473, metadata !"C:/Dev/Xilinx/Vivado/2017.4/win64/tools/clang/bin\5C..\5Clib\5Cclang\5C3.1/../../../include/c++/4.5.2\5Cbits/allocator.h", metadata !"D:\5COneDrive\5CUVA\5Ccrypto\5CAES_code\5CVivadoHLS", null} ; [ DW_TAG_file_type ]
!293 = metadata !{metadata !294, metadata !342, metadata !346, metadata !351}
!294 = metadata !{i32 786460, metadata !291, null, metadata !292, i32 0, i64 0, i64 0, i64 0, i32 0, metadata !295} ; [ DW_TAG_inheritance ]
!295 = metadata !{i32 786434, metadata !296, metadata !"new_allocator<char>", metadata !297, i32 51, i64 8, i64 8, i32 0, i32 0, null, metadata !298, i32 0, null, metadata !340} ; [ DW_TAG_class_type ]
!296 = metadata !{i32 786489, null, metadata !"__gnu_cxx", metadata !297, i32 37} ; [ DW_TAG_namespace ]
!297 = metadata !{i32 786473, metadata !"C:/Dev/Xilinx/Vivado/2017.4/win64/tools/clang/bin\5C..\5Clib\5Cclang\5C3.1/../../../include/c++/4.5.2\5Cext/new_allocator.h", metadata !"D:\5COneDrive\5CUVA\5Ccrypto\5CAES_code\5CVivadoHLS", null} ; [ DW_TAG_file_type ]
!298 = metadata !{metadata !299, metadata !303, metadata !308, metadata !309, metadata !316, metadata !322, metadata !328, metadata !331, metadata !334, metadata !337}
!299 = metadata !{i32 786478, i32 0, metadata !295, metadata !"new_allocator", metadata !"new_allocator", metadata !"", metadata !297, i32 66, metadata !300, i1 false, i1 false, i32 0, i32 0, null, i32 256, i1 false, null, null, i32 0, metadata !87, i32 66} ; [ DW_TAG_subprogram ]
!300 = metadata !{i32 786453, i32 0, metadata !"", i32 0, i32 0, i64 0, i64 0, i64 0, i32 0, null, metadata !301, i32 0, i32 0} ; [ DW_TAG_subroutine_type ]
!301 = metadata !{null, metadata !302}
!302 = metadata !{i32 786447, i32 0, metadata !"", i32 0, i32 0, i64 64, i64 64, i64 0, i32 64, metadata !295} ; [ DW_TAG_pointer_type ]
!303 = metadata !{i32 786478, i32 0, metadata !295, metadata !"new_allocator", metadata !"new_allocator", metadata !"", metadata !297, i32 68, metadata !304, i1 false, i1 false, i32 0, i32 0, null, i32 256, i1 false, null, null, i32 0, metadata !87, i32 68} ; [ DW_TAG_subprogram ]
!304 = metadata !{i32 786453, i32 0, metadata !"", i32 0, i32 0, i64 0, i64 0, i64 0, i32 0, null, metadata !305, i32 0, i32 0} ; [ DW_TAG_subroutine_type ]
!305 = metadata !{null, metadata !302, metadata !306}
!306 = metadata !{i32 786448, null, null, null, i32 0, i64 0, i64 0, i64 0, i32 0, metadata !307} ; [ DW_TAG_reference_type ]
!307 = metadata !{i32 786470, null, metadata !"", null, i32 0, i64 0, i64 0, i64 0, i32 0, metadata !295} ; [ DW_TAG_const_type ]
!308 = metadata !{i32 786478, i32 0, metadata !295, metadata !"~new_allocator", metadata !"~new_allocator", metadata !"", metadata !297, i32 73, metadata !300, i1 false, i1 false, i32 0, i32 0, null, i32 256, i1 false, null, null, i32 0, metadata !87, i32 73} ; [ DW_TAG_subprogram ]
!309 = metadata !{i32 786478, i32 0, metadata !295, metadata !"address", metadata !"address", metadata !"_ZNK9__gnu_cxx13new_allocatorIcE7addressERc", metadata !297, i32 76, metadata !310, i1 false, i1 false, i32 0, i32 0, null, i32 256, i1 false, null, null, i32 0, metadata !87, i32 76} ; [ DW_TAG_subprogram ]
!310 = metadata !{i32 786453, i32 0, metadata !"", i32 0, i32 0, i64 0, i64 0, i64 0, i32 0, null, metadata !311, i32 0, i32 0} ; [ DW_TAG_subroutine_type ]
!311 = metadata !{metadata !312, metadata !313, metadata !314}
!312 = metadata !{i32 786454, metadata !295, metadata !"pointer", metadata !297, i32 56, i64 0, i64 0, i64 0, i32 0, metadata !188} ; [ DW_TAG_typedef ]
!313 = metadata !{i32 786447, i32 0, metadata !"", i32 0, i32 0, i64 64, i64 64, i64 0, i32 64, metadata !307} ; [ DW_TAG_pointer_type ]
!314 = metadata !{i32 786454, metadata !295, metadata !"reference", metadata !297, i32 58, i64 0, i64 0, i64 0, i32 0, metadata !315} ; [ DW_TAG_typedef ]
!315 = metadata !{i32 786448, null, null, null, i32 0, i64 0, i64 0, i64 0, i32 0, metadata !153} ; [ DW_TAG_reference_type ]
!316 = metadata !{i32 786478, i32 0, metadata !295, metadata !"address", metadata !"address", metadata !"_ZNK9__gnu_cxx13new_allocatorIcE7addressERKc", metadata !297, i32 79, metadata !317, i1 false, i1 false, i32 0, i32 0, null, i32 256, i1 false, null, null, i32 0, metadata !87, i32 79} ; [ DW_TAG_subprogram ]
!317 = metadata !{i32 786453, i32 0, metadata !"", i32 0, i32 0, i64 0, i64 0, i64 0, i32 0, null, metadata !318, i32 0, i32 0} ; [ DW_TAG_subroutine_type ]
!318 = metadata !{metadata !319, metadata !313, metadata !320}
!319 = metadata !{i32 786454, metadata !295, metadata !"const_pointer", metadata !297, i32 57, i64 0, i64 0, i64 0, i32 0, metadata !151} ; [ DW_TAG_typedef ]
!320 = metadata !{i32 786454, metadata !295, metadata !"const_reference", metadata !297, i32 59, i64 0, i64 0, i64 0, i32 0, metadata !321} ; [ DW_TAG_typedef ]
!321 = metadata !{i32 786448, null, null, null, i32 0, i64 0, i64 0, i64 0, i32 0, metadata !152} ; [ DW_TAG_reference_type ]
!322 = metadata !{i32 786478, i32 0, metadata !295, metadata !"allocate", metadata !"allocate", metadata !"_ZN9__gnu_cxx13new_allocatorIcE8allocateEyPKv", metadata !297, i32 84, metadata !323, i1 false, i1 false, i32 0, i32 0, null, i32 256, i1 false, null, null, i32 0, metadata !87, i32 84} ; [ DW_TAG_subprogram ]
!323 = metadata !{i32 786453, i32 0, metadata !"", i32 0, i32 0, i64 0, i64 0, i64 0, i32 0, null, metadata !324, i32 0, i32 0} ; [ DW_TAG_subroutine_type ]
!324 = metadata !{metadata !312, metadata !302, metadata !325, metadata !326}
!325 = metadata !{i32 786454, null, metadata !"size_type", metadata !297, i32 54, i64 0, i64 0, i64 0, i32 0, metadata !138} ; [ DW_TAG_typedef ]
!326 = metadata !{i32 786447, null, metadata !"", null, i32 0, i64 64, i64 64, i64 0, i32 0, metadata !327} ; [ DW_TAG_pointer_type ]
!327 = metadata !{i32 786470, null, metadata !"", null, i32 0, i64 0, i64 0, i64 0, i32 0, null} ; [ DW_TAG_const_type ]
!328 = metadata !{i32 786478, i32 0, metadata !295, metadata !"deallocate", metadata !"deallocate", metadata !"_ZN9__gnu_cxx13new_allocatorIcE10deallocateEPcy", metadata !297, i32 94, metadata !329, i1 false, i1 false, i32 0, i32 0, null, i32 256, i1 false, null, null, i32 0, metadata !87, i32 94} ; [ DW_TAG_subprogram ]
!329 = metadata !{i32 786453, i32 0, metadata !"", i32 0, i32 0, i64 0, i64 0, i64 0, i32 0, null, metadata !330, i32 0, i32 0} ; [ DW_TAG_subroutine_type ]
!330 = metadata !{null, metadata !302, metadata !312, metadata !325}
!331 = metadata !{i32 786478, i32 0, metadata !295, metadata !"max_size", metadata !"max_size", metadata !"_ZNK9__gnu_cxx13new_allocatorIcE8max_sizeEv", metadata !297, i32 98, metadata !332, i1 false, i1 false, i32 0, i32 0, null, i32 256, i1 false, null, null, i32 0, metadata !87, i32 98} ; [ DW_TAG_subprogram ]
!332 = metadata !{i32 786453, i32 0, metadata !"", i32 0, i32 0, i64 0, i64 0, i64 0, i32 0, null, metadata !333, i32 0, i32 0} ; [ DW_TAG_subroutine_type ]
!333 = metadata !{metadata !325, metadata !313}
!334 = metadata !{i32 786478, i32 0, metadata !295, metadata !"construct", metadata !"construct", metadata !"_ZN9__gnu_cxx13new_allocatorIcE9constructEPcRKc", metadata !297, i32 104, metadata !335, i1 false, i1 false, i32 0, i32 0, null, i32 256, i1 false, null, null, i32 0, metadata !87, i32 104} ; [ DW_TAG_subprogram ]
!335 = metadata !{i32 786453, i32 0, metadata !"", i32 0, i32 0, i64 0, i64 0, i64 0, i32 0, null, metadata !336, i32 0, i32 0} ; [ DW_TAG_subroutine_type ]
!336 = metadata !{null, metadata !302, metadata !312, metadata !321}
!337 = metadata !{i32 786478, i32 0, metadata !295, metadata !"destroy", metadata !"destroy", metadata !"_ZN9__gnu_cxx13new_allocatorIcE7destroyEPc", metadata !297, i32 115, metadata !338, i1 false, i1 false, i32 0, i32 0, null, i32 256, i1 false, null, null, i32 0, metadata !87, i32 115} ; [ DW_TAG_subprogram ]
!338 = metadata !{i32 786453, i32 0, metadata !"", i32 0, i32 0, i64 0, i64 0, i64 0, i32 0, null, metadata !339, i32 0, i32 0} ; [ DW_TAG_subroutine_type ]
!339 = metadata !{null, metadata !302, metadata !312}
!340 = metadata !{metadata !341}
!341 = metadata !{i32 786479, null, metadata !"_Tp", metadata !153, null, i32 0, i32 0} ; [ DW_TAG_template_type_parameter ]
!342 = metadata !{i32 786478, i32 0, metadata !291, metadata !"allocator", metadata !"allocator", metadata !"", metadata !292, i32 101, metadata !343, i1 false, i1 false, i32 0, i32 0, null, i32 256, i1 false, null, null, i32 0, metadata !87, i32 101} ; [ DW_TAG_subprogram ]
!343 = metadata !{i32 786453, i32 0, metadata !"", i32 0, i32 0, i64 0, i64 0, i64 0, i32 0, null, metadata !344, i32 0, i32 0} ; [ DW_TAG_subroutine_type ]
!344 = metadata !{null, metadata !345}
!345 = metadata !{i32 786447, i32 0, metadata !"", i32 0, i32 0, i64 64, i64 64, i64 0, i32 64, metadata !291} ; [ DW_TAG_pointer_type ]
!346 = metadata !{i32 786478, i32 0, metadata !291, metadata !"allocator", metadata !"allocator", metadata !"", metadata !292, i32 103, metadata !347, i1 false, i1 false, i32 0, i32 0, null, i32 256, i1 false, null, null, i32 0, metadata !87, i32 103} ; [ DW_TAG_subprogram ]
!347 = metadata !{i32 786453, i32 0, metadata !"", i32 0, i32 0, i64 0, i64 0, i64 0, i32 0, null, metadata !348, i32 0, i32 0} ; [ DW_TAG_subroutine_type ]
!348 = metadata !{null, metadata !345, metadata !349}
!349 = metadata !{i32 786448, null, null, null, i32 0, i64 0, i64 0, i64 0, i32 0, metadata !350} ; [ DW_TAG_reference_type ]
!350 = metadata !{i32 786470, null, metadata !"", null, i32 0, i64 0, i64 0, i64 0, i32 0, metadata !291} ; [ DW_TAG_const_type ]
!351 = metadata !{i32 786478, i32 0, metadata !291, metadata !"~allocator", metadata !"~allocator", metadata !"", metadata !292, i32 109, metadata !343, i1 false, i1 false, i32 0, i32 0, null, i32 256, i1 false, null, null, i32 0, metadata !87, i32 109} ; [ DW_TAG_subprogram ]
!352 = metadata !{metadata !353}
!353 = metadata !{i32 786479, null, metadata !"_Alloc", metadata !153, null, i32 0, i32 0} ; [ DW_TAG_template_type_parameter ]
!354 = metadata !{i32 786445, metadata !288, metadata !"_M_p", metadata !287, i32 262, i64 64, i64 64, i64 0, i32 0, metadata !188} ; [ DW_TAG_member ]
!355 = metadata !{i32 786478, i32 0, metadata !288, metadata !"_Alloc_hider", metadata !"_Alloc_hider", metadata !"", metadata !287, i32 259, metadata !356, i1 false, i1 false, i32 0, i32 0, null, i32 256, i1 false, null, null, i32 0, metadata !87, i32 259} ; [ DW_TAG_subprogram ]
!356 = metadata !{i32 786453, i32 0, metadata !"", i32 0, i32 0, i64 0, i64 0, i64 0, i32 0, null, metadata !357, i32 0, i32 0} ; [ DW_TAG_subroutine_type ]
!357 = metadata !{null, metadata !358, metadata !188, metadata !349}
!358 = metadata !{i32 786447, i32 0, metadata !"", i32 0, i32 0, i64 64, i64 64, i64 0, i32 64, metadata !288} ; [ DW_TAG_pointer_type ]
!359 = metadata !{i32 786478, i32 0, metadata !283, metadata !"_M_data", metadata !"_M_data", metadata !"_ZNKSs7_M_dataEv", metadata !287, i32 277, metadata !360, i1 false, i1 false, i32 0, i32 0, null, i32 257, i1 false, null, null, i32 0, metadata !87, i32 277} ; [ DW_TAG_subprogram ]
!360 = metadata !{i32 786453, i32 0, metadata !"", i32 0, i32 0, i64 0, i64 0, i64 0, i32 0, null, metadata !361, i32 0, i32 0} ; [ DW_TAG_subroutine_type ]
!361 = metadata !{metadata !188, metadata !362}
!362 = metadata !{i32 786447, i32 0, metadata !"", i32 0, i32 0, i64 64, i64 64, i64 0, i32 64, metadata !363} ; [ DW_TAG_pointer_type ]
!363 = metadata !{i32 786470, null, metadata !"", null, i32 0, i64 0, i64 0, i64 0, i32 0, metadata !283} ; [ DW_TAG_const_type ]
!364 = metadata !{i32 786478, i32 0, metadata !283, metadata !"_M_data", metadata !"_M_data", metadata !"_ZNSs7_M_dataEPc", metadata !287, i32 281, metadata !365, i1 false, i1 false, i32 0, i32 0, null, i32 257, i1 false, null, null, i32 0, metadata !87, i32 281} ; [ DW_TAG_subprogram ]
!365 = metadata !{i32 786453, i32 0, metadata !"", i32 0, i32 0, i64 0, i64 0, i64 0, i32 0, null, metadata !366, i32 0, i32 0} ; [ DW_TAG_subroutine_type ]
!366 = metadata !{metadata !188, metadata !367, metadata !188}
!367 = metadata !{i32 786447, i32 0, metadata !"", i32 0, i32 0, i64 64, i64 64, i64 0, i32 64, metadata !283} ; [ DW_TAG_pointer_type ]
!368 = metadata !{i32 786478, i32 0, metadata !283, metadata !"_M_rep", metadata !"_M_rep", metadata !"_ZNKSs6_M_repEv", metadata !287, i32 285, metadata !369, i1 false, i1 false, i32 0, i32 0, null, i32 257, i1 false, null, null, i32 0, metadata !87, i32 285} ; [ DW_TAG_subprogram ]
!369 = metadata !{i32 786453, i32 0, metadata !"", i32 0, i32 0, i64 0, i64 0, i64 0, i32 0, null, metadata !370, i32 0, i32 0} ; [ DW_TAG_subroutine_type ]
!370 = metadata !{metadata !371, metadata !362}
!371 = metadata !{i32 786447, null, metadata !"", null, i32 0, i64 64, i64 64, i64 0, i32 0, metadata !372} ; [ DW_TAG_pointer_type ]
!372 = metadata !{i32 786434, metadata !283, metadata !"_Rep", metadata !287, i32 147, i64 192, i64 64, i32 0, i32 0, null, metadata !373, i32 0, null, null} ; [ DW_TAG_class_type ]
!373 = metadata !{metadata !374, metadata !382, metadata !386, metadata !391, metadata !392, metadata !396, metadata !397, metadata !400, metadata !403, metadata !406, metadata !409, metadata !412, metadata !413, metadata !414}
!374 = metadata !{i32 786460, metadata !372, null, metadata !287, i32 0, i64 0, i64 0, i64 0, i32 0, metadata !375} ; [ DW_TAG_inheritance ]
!375 = metadata !{i32 786434, metadata !283, metadata !"_Rep_base", metadata !287, i32 140, i64 192, i64 64, i32 0, i32 0, null, metadata !376, i32 0, null, null} ; [ DW_TAG_class_type ]
!376 = metadata !{metadata !377, metadata !380, metadata !381}
!377 = metadata !{i32 786445, metadata !375, metadata !"_M_length", metadata !287, i32 142, i64 64, i64 64, i64 0, i32 0, metadata !378} ; [ DW_TAG_member ]
!378 = metadata !{i32 786454, metadata !283, metadata !"size_type", metadata !287, i32 113, i64 0, i64 0, i64 0, i32 0, metadata !379} ; [ DW_TAG_typedef ]
!379 = metadata !{i32 786454, metadata !291, metadata !"size_type", metadata !287, i32 89, i64 0, i64 0, i64 0, i32 0, metadata !138} ; [ DW_TAG_typedef ]
!380 = metadata !{i32 786445, metadata !375, metadata !"_M_capacity", metadata !287, i32 143, i64 64, i64 64, i64 64, i32 0, metadata !378} ; [ DW_TAG_member ]
!381 = metadata !{i32 786445, metadata !375, metadata !"_M_refcount", metadata !287, i32 144, i64 32, i64 32, i64 128, i32 0, metadata !82} ; [ DW_TAG_member ]
!382 = metadata !{i32 786478, i32 0, metadata !372, metadata !"_S_empty_rep", metadata !"_S_empty_rep", metadata !"_ZNSs4_Rep12_S_empty_repEv", metadata !287, i32 173, metadata !383, i1 false, i1 false, i32 0, i32 0, null, i32 256, i1 false, null, null, i32 0, metadata !87, i32 173} ; [ DW_TAG_subprogram ]
!383 = metadata !{i32 786453, i32 0, metadata !"", i32 0, i32 0, i64 0, i64 0, i64 0, i32 0, null, metadata !384, i32 0, i32 0} ; [ DW_TAG_subroutine_type ]
!384 = metadata !{metadata !385}
!385 = metadata !{i32 786448, null, null, null, i32 0, i64 0, i64 0, i64 0, i32 0, metadata !372} ; [ DW_TAG_reference_type ]
!386 = metadata !{i32 786478, i32 0, metadata !372, metadata !"_M_is_leaked", metadata !"_M_is_leaked", metadata !"_ZNKSs4_Rep12_M_is_leakedEv", metadata !287, i32 183, metadata !387, i1 false, i1 false, i32 0, i32 0, null, i32 256, i1 false, null, null, i32 0, metadata !87, i32 183} ; [ DW_TAG_subprogram ]
!387 = metadata !{i32 786453, i32 0, metadata !"", i32 0, i32 0, i64 0, i64 0, i64 0, i32 0, null, metadata !388, i32 0, i32 0} ; [ DW_TAG_subroutine_type ]
!388 = metadata !{metadata !213, metadata !389}
!389 = metadata !{i32 786447, i32 0, metadata !"", i32 0, i32 0, i64 64, i64 64, i64 0, i32 64, metadata !390} ; [ DW_TAG_pointer_type ]
!390 = metadata !{i32 786470, null, metadata !"", null, i32 0, i64 0, i64 0, i64 0, i32 0, metadata !372} ; [ DW_TAG_const_type ]
!391 = metadata !{i32 786478, i32 0, metadata !372, metadata !"_M_is_shared", metadata !"_M_is_shared", metadata !"_ZNKSs4_Rep12_M_is_sharedEv", metadata !287, i32 187, metadata !387, i1 false, i1 false, i32 0, i32 0, null, i32 256, i1 false, null, null, i32 0, metadata !87, i32 187} ; [ DW_TAG_subprogram ]
!392 = metadata !{i32 786478, i32 0, metadata !372, metadata !"_M_set_leaked", metadata !"_M_set_leaked", metadata !"_ZNSs4_Rep13_M_set_leakedEv", metadata !287, i32 191, metadata !393, i1 false, i1 false, i32 0, i32 0, null, i32 256, i1 false, null, null, i32 0, metadata !87, i32 191} ; [ DW_TAG_subprogram ]
!393 = metadata !{i32 786453, i32 0, metadata !"", i32 0, i32 0, i64 0, i64 0, i64 0, i32 0, null, metadata !394, i32 0, i32 0} ; [ DW_TAG_subroutine_type ]
!394 = metadata !{null, metadata !395}
!395 = metadata !{i32 786447, i32 0, metadata !"", i32 0, i32 0, i64 64, i64 64, i64 0, i32 64, metadata !372} ; [ DW_TAG_pointer_type ]
!396 = metadata !{i32 786478, i32 0, metadata !372, metadata !"_M_set_sharable", metadata !"_M_set_sharable", metadata !"_ZNSs4_Rep15_M_set_sharableEv", metadata !287, i32 195, metadata !393, i1 false, i1 false, i32 0, i32 0, null, i32 256, i1 false, null, null, i32 0, metadata !87, i32 195} ; [ DW_TAG_subprogram ]
!397 = metadata !{i32 786478, i32 0, metadata !372, metadata !"_M_set_length_and_sharable", metadata !"_M_set_length_and_sharable", metadata !"_ZNSs4_Rep26_M_set_length_and_sharableEy", metadata !287, i32 199, metadata !398, i1 false, i1 false, i32 0, i32 0, null, i32 256, i1 false, null, null, i32 0, metadata !87, i32 199} ; [ DW_TAG_subprogram ]
!398 = metadata !{i32 786453, i32 0, metadata !"", i32 0, i32 0, i64 0, i64 0, i64 0, i32 0, null, metadata !399, i32 0, i32 0} ; [ DW_TAG_subroutine_type ]
!399 = metadata !{null, metadata !395, metadata !378}
!400 = metadata !{i32 786478, i32 0, metadata !372, metadata !"_M_refdata", metadata !"_M_refdata", metadata !"_ZNSs4_Rep10_M_refdataEv", metadata !287, i32 214, metadata !401, i1 false, i1 false, i32 0, i32 0, null, i32 256, i1 false, null, null, i32 0, metadata !87, i32 214} ; [ DW_TAG_subprogram ]
!401 = metadata !{i32 786453, i32 0, metadata !"", i32 0, i32 0, i64 0, i64 0, i64 0, i32 0, null, metadata !402, i32 0, i32 0} ; [ DW_TAG_subroutine_type ]
!402 = metadata !{metadata !188, metadata !395}
!403 = metadata !{i32 786478, i32 0, metadata !372, metadata !"_M_grab", metadata !"_M_grab", metadata !"_ZNSs4_Rep7_M_grabERKSaIcES2_", metadata !287, i32 218, metadata !404, i1 false, i1 false, i32 0, i32 0, null, i32 256, i1 false, null, null, i32 0, metadata !87, i32 218} ; [ DW_TAG_subprogram ]
!404 = metadata !{i32 786453, i32 0, metadata !"", i32 0, i32 0, i64 0, i64 0, i64 0, i32 0, null, metadata !405, i32 0, i32 0} ; [ DW_TAG_subroutine_type ]
!405 = metadata !{metadata !188, metadata !395, metadata !349, metadata !349}
!406 = metadata !{i32 786478, i32 0, metadata !372, metadata !"_S_create", metadata !"_S_create", metadata !"_ZNSs4_Rep9_S_createEyyRKSaIcE", metadata !287, i32 226, metadata !407, i1 false, i1 false, i32 0, i32 0, null, i32 256, i1 false, null, null, i32 0, metadata !87, i32 226} ; [ DW_TAG_subprogram ]
!407 = metadata !{i32 786453, i32 0, metadata !"", i32 0, i32 0, i64 0, i64 0, i64 0, i32 0, null, metadata !408, i32 0, i32 0} ; [ DW_TAG_subroutine_type ]
!408 = metadata !{metadata !371, metadata !378, metadata !378, metadata !349}
!409 = metadata !{i32 786478, i32 0, metadata !372, metadata !"_M_dispose", metadata !"_M_dispose", metadata !"_ZNSs4_Rep10_M_disposeERKSaIcE", metadata !287, i32 229, metadata !410, i1 false, i1 false, i32 0, i32 0, null, i32 256, i1 false, null, null, i32 0, metadata !87, i32 229} ; [ DW_TAG_subprogram ]
!410 = metadata !{i32 786453, i32 0, metadata !"", i32 0, i32 0, i64 0, i64 0, i64 0, i32 0, null, metadata !411, i32 0, i32 0} ; [ DW_TAG_subroutine_type ]
!411 = metadata !{null, metadata !395, metadata !349}
!412 = metadata !{i32 786478, i32 0, metadata !372, metadata !"_M_destroy", metadata !"_M_destroy", metadata !"_ZNSs4_Rep10_M_destroyERKSaIcE", metadata !287, i32 240, metadata !410, i1 false, i1 false, i32 0, i32 0, null, i32 256, i1 false, null, null, i32 0, metadata !87, i32 240} ; [ DW_TAG_subprogram ]
!413 = metadata !{i32 786478, i32 0, metadata !372, metadata !"_M_refcopy", metadata !"_M_refcopy", metadata !"_ZNSs4_Rep10_M_refcopyEv", metadata !287, i32 243, metadata !401, i1 false, i1 false, i32 0, i32 0, null, i32 256, i1 false, null, null, i32 0, metadata !87, i32 243} ; [ DW_TAG_subprogram ]
!414 = metadata !{i32 786478, i32 0, metadata !372, metadata !"_M_clone", metadata !"_M_clone", metadata !"_ZNSs4_Rep8_M_cloneERKSaIcEy", metadata !287, i32 253, metadata !415, i1 false, i1 false, i32 0, i32 0, null, i32 256, i1 false, null, null, i32 0, metadata !87, i32 253} ; [ DW_TAG_subprogram ]
!415 = metadata !{i32 786453, i32 0, metadata !"", i32 0, i32 0, i64 0, i64 0, i64 0, i32 0, null, metadata !416, i32 0, i32 0} ; [ DW_TAG_subroutine_type ]
!416 = metadata !{metadata !188, metadata !395, metadata !349, metadata !378}
!417 = metadata !{i32 786478, i32 0, metadata !283, metadata !"_M_ibegin", metadata !"_M_ibegin", metadata !"_ZNKSs9_M_ibeginEv", metadata !287, i32 291, metadata !418, i1 false, i1 false, i32 0, i32 0, null, i32 257, i1 false, null, null, i32 0, metadata !87, i32 291} ; [ DW_TAG_subprogram ]
!418 = metadata !{i32 786453, i32 0, metadata !"", i32 0, i32 0, i64 0, i64 0, i64 0, i32 0, null, metadata !419, i32 0, i32 0} ; [ DW_TAG_subroutine_type ]
!419 = metadata !{metadata !420, metadata !362}
!420 = metadata !{i32 786454, metadata !283, metadata !"iterator", metadata !284, i32 119, i64 0, i64 0, i64 0, i32 0, metadata !421} ; [ DW_TAG_typedef ]
!421 = metadata !{i32 786434, null, metadata !"__normal_iterator<char *, std::basic_string<char> >", metadata !422, i32 697, i32 0, i32 0, i32 0, i32 4, null, null, i32 0} ; [ DW_TAG_class_type ]
!422 = metadata !{i32 786473, metadata !"C:/Dev/Xilinx/Vivado/2017.4/win64/tools/clang/bin\5C..\5Clib\5Cclang\5C3.1/../../../include/c++/4.5.2\5Cbits/stl_iterator.h", metadata !"D:\5COneDrive\5CUVA\5Ccrypto\5CAES_code\5CVivadoHLS", null} ; [ DW_TAG_file_type ]
!423 = metadata !{i32 786478, i32 0, metadata !283, metadata !"_M_iend", metadata !"_M_iend", metadata !"_ZNKSs7_M_iendEv", metadata !287, i32 295, metadata !418, i1 false, i1 false, i32 0, i32 0, null, i32 257, i1 false, null, null, i32 0, metadata !87, i32 295} ; [ DW_TAG_subprogram ]
!424 = metadata !{i32 786478, i32 0, metadata !283, metadata !"_M_leak", metadata !"_M_leak", metadata !"_ZNSs7_M_leakEv", metadata !287, i32 299, metadata !425, i1 false, i1 false, i32 0, i32 0, null, i32 257, i1 false, null, null, i32 0, metadata !87, i32 299} ; [ DW_TAG_subprogram ]
!425 = metadata !{i32 786453, i32 0, metadata !"", i32 0, i32 0, i64 0, i64 0, i64 0, i32 0, null, metadata !426, i32 0, i32 0} ; [ DW_TAG_subroutine_type ]
!426 = metadata !{null, metadata !367}
!427 = metadata !{i32 786478, i32 0, metadata !283, metadata !"_M_check", metadata !"_M_check", metadata !"_ZNKSs8_M_checkEyPKc", metadata !287, i32 306, metadata !428, i1 false, i1 false, i32 0, i32 0, null, i32 257, i1 false, null, null, i32 0, metadata !87, i32 306} ; [ DW_TAG_subprogram ]
!428 = metadata !{i32 786453, i32 0, metadata !"", i32 0, i32 0, i64 0, i64 0, i64 0, i32 0, null, metadata !429, i32 0, i32 0} ; [ DW_TAG_subroutine_type ]
!429 = metadata !{metadata !378, metadata !362, metadata !378, metadata !151}
!430 = metadata !{i32 786478, i32 0, metadata !283, metadata !"_M_check_length", metadata !"_M_check_length", metadata !"_ZNKSs15_M_check_lengthEyyPKc", metadata !287, i32 314, metadata !431, i1 false, i1 false, i32 0, i32 0, null, i32 257, i1 false, null, null, i32 0, metadata !87, i32 314} ; [ DW_TAG_subprogram ]
!431 = metadata !{i32 786453, i32 0, metadata !"", i32 0, i32 0, i64 0, i64 0, i64 0, i32 0, null, metadata !432, i32 0, i32 0} ; [ DW_TAG_subroutine_type ]
!432 = metadata !{null, metadata !362, metadata !378, metadata !378, metadata !151}
!433 = metadata !{i32 786478, i32 0, metadata !283, metadata !"_M_limit", metadata !"_M_limit", metadata !"_ZNKSs8_M_limitEyy", metadata !287, i32 322, metadata !434, i1 false, i1 false, i32 0, i32 0, null, i32 257, i1 false, null, null, i32 0, metadata !87, i32 322} ; [ DW_TAG_subprogram ]
!434 = metadata !{i32 786453, i32 0, metadata !"", i32 0, i32 0, i64 0, i64 0, i64 0, i32 0, null, metadata !435, i32 0, i32 0} ; [ DW_TAG_subroutine_type ]
!435 = metadata !{metadata !378, metadata !362, metadata !378, metadata !378}
!436 = metadata !{i32 786478, i32 0, metadata !283, metadata !"_M_disjunct", metadata !"_M_disjunct", metadata !"_ZNKSs11_M_disjunctEPKc", metadata !287, i32 330, metadata !437, i1 false, i1 false, i32 0, i32 0, null, i32 257, i1 false, null, null, i32 0, metadata !87, i32 330} ; [ DW_TAG_subprogram ]
!437 = metadata !{i32 786453, i32 0, metadata !"", i32 0, i32 0, i64 0, i64 0, i64 0, i32 0, null, metadata !438, i32 0, i32 0} ; [ DW_TAG_subroutine_type ]
!438 = metadata !{metadata !213, metadata !362, metadata !151}
!439 = metadata !{i32 786478, i32 0, metadata !283, metadata !"_M_copy", metadata !"_M_copy", metadata !"_ZNSs7_M_copyEPcPKcy", metadata !287, i32 339, metadata !440, i1 false, i1 false, i32 0, i32 0, null, i32 257, i1 false, null, null, i32 0, metadata !87, i32 339} ; [ DW_TAG_subprogram ]
!440 = metadata !{i32 786453, i32 0, metadata !"", i32 0, i32 0, i64 0, i64 0, i64 0, i32 0, null, metadata !441, i32 0, i32 0} ; [ DW_TAG_subroutine_type ]
!441 = metadata !{null, metadata !188, metadata !151, metadata !378}
!442 = metadata !{i32 786478, i32 0, metadata !283, metadata !"_M_move", metadata !"_M_move", metadata !"_ZNSs7_M_moveEPcPKcy", metadata !287, i32 348, metadata !440, i1 false, i1 false, i32 0, i32 0, null, i32 257, i1 false, null, null, i32 0, metadata !87, i32 348} ; [ DW_TAG_subprogram ]
!443 = metadata !{i32 786478, i32 0, metadata !283, metadata !"_M_assign", metadata !"_M_assign", metadata !"_ZNSs9_M_assignEPcyc", metadata !287, i32 357, metadata !444, i1 false, i1 false, i32 0, i32 0, null, i32 257, i1 false, null, null, i32 0, metadata !87, i32 357} ; [ DW_TAG_subprogram ]
!444 = metadata !{i32 786453, i32 0, metadata !"", i32 0, i32 0, i64 0, i64 0, i64 0, i32 0, null, metadata !445, i32 0, i32 0} ; [ DW_TAG_subroutine_type ]
!445 = metadata !{null, metadata !188, metadata !378, metadata !153}
!446 = metadata !{i32 786478, i32 0, metadata !283, metadata !"_S_copy_chars", metadata !"_S_copy_chars", metadata !"_ZNSs13_S_copy_charsEPcN9__gnu_cxx17__normal_iteratorIS_SsEES2_", metadata !287, i32 376, metadata !447, i1 false, i1 false, i32 0, i32 0, null, i32 257, i1 false, null, null, i32 0, metadata !87, i32 376} ; [ DW_TAG_subprogram ]
!447 = metadata !{i32 786453, i32 0, metadata !"", i32 0, i32 0, i64 0, i64 0, i64 0, i32 0, null, metadata !448, i32 0, i32 0} ; [ DW_TAG_subroutine_type ]
!448 = metadata !{null, metadata !188, metadata !420, metadata !420}
!449 = metadata !{i32 786478, i32 0, metadata !283, metadata !"_S_copy_chars", metadata !"_S_copy_chars", metadata !"_ZNSs13_S_copy_charsEPcN9__gnu_cxx17__normal_iteratorIPKcSsEES4_", metadata !287, i32 380, metadata !450, i1 false, i1 false, i32 0, i32 0, null, i32 257, i1 false, null, null, i32 0, metadata !87, i32 380} ; [ DW_TAG_subprogram ]
!450 = metadata !{i32 786453, i32 0, metadata !"", i32 0, i32 0, i64 0, i64 0, i64 0, i32 0, null, metadata !451, i32 0, i32 0} ; [ DW_TAG_subroutine_type ]
!451 = metadata !{null, metadata !188, metadata !452, metadata !452}
!452 = metadata !{i32 786454, metadata !283, metadata !"const_iterator", metadata !284, i32 121, i64 0, i64 0, i64 0, i32 0, metadata !453} ; [ DW_TAG_typedef ]
!453 = metadata !{i32 786434, null, metadata !"__normal_iterator<const char *, std::basic_string<char> >", metadata !422, i32 697, i32 0, i32 0, i32 0, i32 4, null, null, i32 0} ; [ DW_TAG_class_type ]
!454 = metadata !{i32 786478, i32 0, metadata !283, metadata !"_S_copy_chars", metadata !"_S_copy_chars", metadata !"_ZNSs13_S_copy_charsEPcS_S_", metadata !287, i32 384, metadata !455, i1 false, i1 false, i32 0, i32 0, null, i32 257, i1 false, null, null, i32 0, metadata !87, i32 384} ; [ DW_TAG_subprogram ]
!455 = metadata !{i32 786453, i32 0, metadata !"", i32 0, i32 0, i64 0, i64 0, i64 0, i32 0, null, metadata !456, i32 0, i32 0} ; [ DW_TAG_subroutine_type ]
!456 = metadata !{null, metadata !188, metadata !188, metadata !188}
!457 = metadata !{i32 786478, i32 0, metadata !283, metadata !"_S_copy_chars", metadata !"_S_copy_chars", metadata !"_ZNSs13_S_copy_charsEPcPKcS1_", metadata !287, i32 388, metadata !458, i1 false, i1 false, i32 0, i32 0, null, i32 257, i1 false, null, null, i32 0, metadata !87, i32 388} ; [ DW_TAG_subprogram ]
!458 = metadata !{i32 786453, i32 0, metadata !"", i32 0, i32 0, i64 0, i64 0, i64 0, i32 0, null, metadata !459, i32 0, i32 0} ; [ DW_TAG_subroutine_type ]
!459 = metadata !{null, metadata !188, metadata !151, metadata !151}
!460 = metadata !{i32 786478, i32 0, metadata !283, metadata !"_S_compare", metadata !"_S_compare", metadata !"_ZNSs10_S_compareEyy", metadata !287, i32 392, metadata !461, i1 false, i1 false, i32 0, i32 0, null, i32 257, i1 false, null, null, i32 0, metadata !87, i32 392} ; [ DW_TAG_subprogram ]
!461 = metadata !{i32 786453, i32 0, metadata !"", i32 0, i32 0, i64 0, i64 0, i64 0, i32 0, null, metadata !462, i32 0, i32 0} ; [ DW_TAG_subroutine_type ]
!462 = metadata !{metadata !56, metadata !378, metadata !378}
!463 = metadata !{i32 786478, i32 0, metadata !283, metadata !"_M_mutate", metadata !"_M_mutate", metadata !"_ZNSs9_M_mutateEyyy", metadata !287, i32 405, metadata !464, i1 false, i1 false, i32 0, i32 0, null, i32 257, i1 false, null, null, i32 0, metadata !87, i32 405} ; [ DW_TAG_subprogram ]
!464 = metadata !{i32 786453, i32 0, metadata !"", i32 0, i32 0, i64 0, i64 0, i64 0, i32 0, null, metadata !465, i32 0, i32 0} ; [ DW_TAG_subroutine_type ]
!465 = metadata !{null, metadata !367, metadata !378, metadata !378, metadata !378}
!466 = metadata !{i32 786478, i32 0, metadata !283, metadata !"_M_leak_hard", metadata !"_M_leak_hard", metadata !"_ZNSs12_M_leak_hardEv", metadata !287, i32 408, metadata !425, i1 false, i1 false, i32 0, i32 0, null, i32 257, i1 false, null, null, i32 0, metadata !87, i32 408} ; [ DW_TAG_subprogram ]
!467 = metadata !{i32 786478, i32 0, metadata !283, metadata !"_S_empty_rep", metadata !"_S_empty_rep", metadata !"_ZNSs12_S_empty_repEv", metadata !287, i32 411, metadata !383, i1 false, i1 false, i32 0, i32 0, null, i32 257, i1 false, null, null, i32 0, metadata !87, i32 411} ; [ DW_TAG_subprogram ]
!468 = metadata !{i32 786478, i32 0, metadata !283, metadata !"basic_string", metadata !"basic_string", metadata !"", metadata !287, i32 422, metadata !425, i1 false, i1 false, i32 0, i32 0, null, i32 256, i1 false, null, null, i32 0, metadata !87, i32 422} ; [ DW_TAG_subprogram ]
!469 = metadata !{i32 786478, i32 0, metadata !283, metadata !"basic_string", metadata !"basic_string", metadata !"", metadata !287, i32 433, metadata !470, i1 false, i1 false, i32 0, i32 0, null, i32 384, i1 false, null, null, i32 0, metadata !87, i32 433} ; [ DW_TAG_subprogram ]
!470 = metadata !{i32 786453, i32 0, metadata !"", i32 0, i32 0, i64 0, i64 0, i64 0, i32 0, null, metadata !471, i32 0, i32 0} ; [ DW_TAG_subroutine_type ]
!471 = metadata !{null, metadata !367, metadata !349}
!472 = metadata !{i32 786478, i32 0, metadata !283, metadata !"basic_string", metadata !"basic_string", metadata !"", metadata !287, i32 440, metadata !473, i1 false, i1 false, i32 0, i32 0, null, i32 256, i1 false, null, null, i32 0, metadata !87, i32 440} ; [ DW_TAG_subprogram ]
!473 = metadata !{i32 786453, i32 0, metadata !"", i32 0, i32 0, i64 0, i64 0, i64 0, i32 0, null, metadata !474, i32 0, i32 0} ; [ DW_TAG_subroutine_type ]
!474 = metadata !{null, metadata !367, metadata !475}
!475 = metadata !{i32 786448, null, null, null, i32 0, i64 0, i64 0, i64 0, i32 0, metadata !363} ; [ DW_TAG_reference_type ]
!476 = metadata !{i32 786478, i32 0, metadata !283, metadata !"basic_string", metadata !"basic_string", metadata !"", metadata !287, i32 447, metadata !477, i1 false, i1 false, i32 0, i32 0, null, i32 256, i1 false, null, null, i32 0, metadata !87, i32 447} ; [ DW_TAG_subprogram ]
!477 = metadata !{i32 786453, i32 0, metadata !"", i32 0, i32 0, i64 0, i64 0, i64 0, i32 0, null, metadata !478, i32 0, i32 0} ; [ DW_TAG_subroutine_type ]
!478 = metadata !{null, metadata !367, metadata !475, metadata !378, metadata !378}
!479 = metadata !{i32 786478, i32 0, metadata !283, metadata !"basic_string", metadata !"basic_string", metadata !"", metadata !287, i32 456, metadata !480, i1 false, i1 false, i32 0, i32 0, null, i32 256, i1 false, null, null, i32 0, metadata !87, i32 456} ; [ DW_TAG_subprogram ]
!480 = metadata !{i32 786453, i32 0, metadata !"", i32 0, i32 0, i64 0, i64 0, i64 0, i32 0, null, metadata !481, i32 0, i32 0} ; [ DW_TAG_subroutine_type ]
!481 = metadata !{null, metadata !367, metadata !475, metadata !378, metadata !378, metadata !349}
!482 = metadata !{i32 786478, i32 0, metadata !283, metadata !"basic_string", metadata !"basic_string", metadata !"", metadata !287, i32 468, metadata !483, i1 false, i1 false, i32 0, i32 0, null, i32 256, i1 false, null, null, i32 0, metadata !87, i32 468} ; [ DW_TAG_subprogram ]
!483 = metadata !{i32 786453, i32 0, metadata !"", i32 0, i32 0, i64 0, i64 0, i64 0, i32 0, null, metadata !484, i32 0, i32 0} ; [ DW_TAG_subroutine_type ]
!484 = metadata !{null, metadata !367, metadata !151, metadata !378, metadata !349}
!485 = metadata !{i32 786478, i32 0, metadata !283, metadata !"basic_string", metadata !"basic_string", metadata !"", metadata !287, i32 475, metadata !486, i1 false, i1 false, i32 0, i32 0, null, i32 256, i1 false, null, null, i32 0, metadata !87, i32 475} ; [ DW_TAG_subprogram ]
!486 = metadata !{i32 786453, i32 0, metadata !"", i32 0, i32 0, i64 0, i64 0, i64 0, i32 0, null, metadata !487, i32 0, i32 0} ; [ DW_TAG_subroutine_type ]
!487 = metadata !{null, metadata !367, metadata !151, metadata !349}
!488 = metadata !{i32 786478, i32 0, metadata !283, metadata !"basic_string", metadata !"basic_string", metadata !"", metadata !287, i32 482, metadata !489, i1 false, i1 false, i32 0, i32 0, null, i32 256, i1 false, null, null, i32 0, metadata !87, i32 482} ; [ DW_TAG_subprogram ]
!489 = metadata !{i32 786453, i32 0, metadata !"", i32 0, i32 0, i64 0, i64 0, i64 0, i32 0, null, metadata !490, i32 0, i32 0} ; [ DW_TAG_subroutine_type ]
!490 = metadata !{null, metadata !367, metadata !378, metadata !153, metadata !349}
!491 = metadata !{i32 786478, i32 0, metadata !283, metadata !"~basic_string", metadata !"~basic_string", metadata !"", metadata !287, i32 523, metadata !425, i1 false, i1 false, i32 0, i32 0, null, i32 256, i1 false, null, null, i32 0, metadata !87, i32 523} ; [ DW_TAG_subprogram ]
!492 = metadata !{i32 786478, i32 0, metadata !283, metadata !"operator=", metadata !"operator=", metadata !"_ZNSsaSERKSs", metadata !287, i32 531, metadata !493, i1 false, i1 false, i32 0, i32 0, null, i32 256, i1 false, null, null, i32 0, metadata !87, i32 531} ; [ DW_TAG_subprogram ]
!493 = metadata !{i32 786453, i32 0, metadata !"", i32 0, i32 0, i64 0, i64 0, i64 0, i32 0, null, metadata !494, i32 0, i32 0} ; [ DW_TAG_subroutine_type ]
!494 = metadata !{metadata !495, metadata !367, metadata !475}
!495 = metadata !{i32 786448, null, null, null, i32 0, i64 0, i64 0, i64 0, i32 0, metadata !283} ; [ DW_TAG_reference_type ]
!496 = metadata !{i32 786478, i32 0, metadata !283, metadata !"operator=", metadata !"operator=", metadata !"_ZNSsaSEPKc", metadata !287, i32 539, metadata !497, i1 false, i1 false, i32 0, i32 0, null, i32 256, i1 false, null, null, i32 0, metadata !87, i32 539} ; [ DW_TAG_subprogram ]
!497 = metadata !{i32 786453, i32 0, metadata !"", i32 0, i32 0, i64 0, i64 0, i64 0, i32 0, null, metadata !498, i32 0, i32 0} ; [ DW_TAG_subroutine_type ]
!498 = metadata !{metadata !495, metadata !367, metadata !151}
!499 = metadata !{i32 786478, i32 0, metadata !283, metadata !"operator=", metadata !"operator=", metadata !"_ZNSsaSEc", metadata !287, i32 550, metadata !500, i1 false, i1 false, i32 0, i32 0, null, i32 256, i1 false, null, null, i32 0, metadata !87, i32 550} ; [ DW_TAG_subprogram ]
!500 = metadata !{i32 786453, i32 0, metadata !"", i32 0, i32 0, i64 0, i64 0, i64 0, i32 0, null, metadata !501, i32 0, i32 0} ; [ DW_TAG_subroutine_type ]
!501 = metadata !{metadata !495, metadata !367, metadata !153}
!502 = metadata !{i32 786478, i32 0, metadata !283, metadata !"begin", metadata !"begin", metadata !"_ZNSs5beginEv", metadata !287, i32 590, metadata !503, i1 false, i1 false, i32 0, i32 0, null, i32 256, i1 false, null, null, i32 0, metadata !87, i32 590} ; [ DW_TAG_subprogram ]
!503 = metadata !{i32 786453, i32 0, metadata !"", i32 0, i32 0, i64 0, i64 0, i64 0, i32 0, null, metadata !504, i32 0, i32 0} ; [ DW_TAG_subroutine_type ]
!504 = metadata !{metadata !420, metadata !367}
!505 = metadata !{i32 786478, i32 0, metadata !283, metadata !"begin", metadata !"begin", metadata !"_ZNKSs5beginEv", metadata !287, i32 601, metadata !506, i1 false, i1 false, i32 0, i32 0, null, i32 256, i1 false, null, null, i32 0, metadata !87, i32 601} ; [ DW_TAG_subprogram ]
!506 = metadata !{i32 786453, i32 0, metadata !"", i32 0, i32 0, i64 0, i64 0, i64 0, i32 0, null, metadata !507, i32 0, i32 0} ; [ DW_TAG_subroutine_type ]
!507 = metadata !{metadata !452, metadata !362}
!508 = metadata !{i32 786478, i32 0, metadata !283, metadata !"end", metadata !"end", metadata !"_ZNSs3endEv", metadata !287, i32 609, metadata !503, i1 false, i1 false, i32 0, i32 0, null, i32 256, i1 false, null, null, i32 0, metadata !87, i32 609} ; [ DW_TAG_subprogram ]
!509 = metadata !{i32 786478, i32 0, metadata !283, metadata !"end", metadata !"end", metadata !"_ZNKSs3endEv", metadata !287, i32 620, metadata !506, i1 false, i1 false, i32 0, i32 0, null, i32 256, i1 false, null, null, i32 0, metadata !87, i32 620} ; [ DW_TAG_subprogram ]
!510 = metadata !{i32 786478, i32 0, metadata !283, metadata !"rbegin", metadata !"rbegin", metadata !"_ZNSs6rbeginEv", metadata !287, i32 629, metadata !511, i1 false, i1 false, i32 0, i32 0, null, i32 256, i1 false, null, null, i32 0, metadata !87, i32 629} ; [ DW_TAG_subprogram ]
!511 = metadata !{i32 786453, i32 0, metadata !"", i32 0, i32 0, i64 0, i64 0, i64 0, i32 0, null, metadata !512, i32 0, i32 0} ; [ DW_TAG_subroutine_type ]
!512 = metadata !{metadata !513, metadata !367}
!513 = metadata !{i32 786454, metadata !283, metadata !"reverse_iterator", metadata !284, i32 123, i64 0, i64 0, i64 0, i32 0, metadata !514} ; [ DW_TAG_typedef ]
!514 = metadata !{i32 786434, null, metadata !"reverse_iterator<__gnu_cxx::__normal_iterator<char *, std::basic_string<char> > >", metadata !422, i32 95, i32 0, i32 0, i32 0, i32 4, null, null, i32 0} ; [ DW_TAG_class_type ]
!515 = metadata !{i32 786478, i32 0, metadata !283, metadata !"rbegin", metadata !"rbegin", metadata !"_ZNKSs6rbeginEv", metadata !287, i32 638, metadata !516, i1 false, i1 false, i32 0, i32 0, null, i32 256, i1 false, null, null, i32 0, metadata !87, i32 638} ; [ DW_TAG_subprogram ]
!516 = metadata !{i32 786453, i32 0, metadata !"", i32 0, i32 0, i64 0, i64 0, i64 0, i32 0, null, metadata !517, i32 0, i32 0} ; [ DW_TAG_subroutine_type ]
!517 = metadata !{metadata !518, metadata !362}
!518 = metadata !{i32 786454, metadata !283, metadata !"const_reverse_iterator", metadata !284, i32 122, i64 0, i64 0, i64 0, i32 0, metadata !519} ; [ DW_TAG_typedef ]
!519 = metadata !{i32 786434, null, metadata !"reverse_iterator<__gnu_cxx::__normal_iterator<const char *, std::basic_string<char> > >", metadata !422, i32 95, i32 0, i32 0, i32 0, i32 4, null, null, i32 0} ; [ DW_TAG_class_type ]
!520 = metadata !{i32 786478, i32 0, metadata !283, metadata !"rend", metadata !"rend", metadata !"_ZNSs4rendEv", metadata !287, i32 647, metadata !511, i1 false, i1 false, i32 0, i32 0, null, i32 256, i1 false, null, null, i32 0, metadata !87, i32 647} ; [ DW_TAG_subprogram ]
!521 = metadata !{i32 786478, i32 0, metadata !283, metadata !"rend", metadata !"rend", metadata !"_ZNKSs4rendEv", metadata !287, i32 656, metadata !516, i1 false, i1 false, i32 0, i32 0, null, i32 256, i1 false, null, null, i32 0, metadata !87, i32 656} ; [ DW_TAG_subprogram ]
!522 = metadata !{i32 786478, i32 0, metadata !283, metadata !"size", metadata !"size", metadata !"_ZNKSs4sizeEv", metadata !287, i32 700, metadata !523, i1 false, i1 false, i32 0, i32 0, null, i32 256, i1 false, null, null, i32 0, metadata !87, i32 700} ; [ DW_TAG_subprogram ]
!523 = metadata !{i32 786453, i32 0, metadata !"", i32 0, i32 0, i64 0, i64 0, i64 0, i32 0, null, metadata !524, i32 0, i32 0} ; [ DW_TAG_subroutine_type ]
!524 = metadata !{metadata !378, metadata !362}
!525 = metadata !{i32 786478, i32 0, metadata !283, metadata !"length", metadata !"length", metadata !"_ZNKSs6lengthEv", metadata !287, i32 706, metadata !523, i1 false, i1 false, i32 0, i32 0, null, i32 256, i1 false, null, null, i32 0, metadata !87, i32 706} ; [ DW_TAG_subprogram ]
!526 = metadata !{i32 786478, i32 0, metadata !283, metadata !"max_size", metadata !"max_size", metadata !"_ZNKSs8max_sizeEv", metadata !287, i32 711, metadata !523, i1 false, i1 false, i32 0, i32 0, null, i32 256, i1 false, null, null, i32 0, metadata !87, i32 711} ; [ DW_TAG_subprogram ]
!527 = metadata !{i32 786478, i32 0, metadata !283, metadata !"resize", metadata !"resize", metadata !"_ZNSs6resizeEyc", metadata !287, i32 725, metadata !528, i1 false, i1 false, i32 0, i32 0, null, i32 256, i1 false, null, null, i32 0, metadata !87, i32 725} ; [ DW_TAG_subprogram ]
!528 = metadata !{i32 786453, i32 0, metadata !"", i32 0, i32 0, i64 0, i64 0, i64 0, i32 0, null, metadata !529, i32 0, i32 0} ; [ DW_TAG_subroutine_type ]
!529 = metadata !{null, metadata !367, metadata !378, metadata !153}
!530 = metadata !{i32 786478, i32 0, metadata !283, metadata !"resize", metadata !"resize", metadata !"_ZNSs6resizeEy", metadata !287, i32 738, metadata !531, i1 false, i1 false, i32 0, i32 0, null, i32 256, i1 false, null, null, i32 0, metadata !87, i32 738} ; [ DW_TAG_subprogram ]
!531 = metadata !{i32 786453, i32 0, metadata !"", i32 0, i32 0, i64 0, i64 0, i64 0, i32 0, null, metadata !532, i32 0, i32 0} ; [ DW_TAG_subroutine_type ]
!532 = metadata !{null, metadata !367, metadata !378}
!533 = metadata !{i32 786478, i32 0, metadata !283, metadata !"capacity", metadata !"capacity", metadata !"_ZNKSs8capacityEv", metadata !287, i32 758, metadata !523, i1 false, i1 false, i32 0, i32 0, null, i32 256, i1 false, null, null, i32 0, metadata !87, i32 758} ; [ DW_TAG_subprogram ]
!534 = metadata !{i32 786478, i32 0, metadata !283, metadata !"reserve", metadata !"reserve", metadata !"_ZNSs7reserveEy", metadata !287, i32 779, metadata !531, i1 false, i1 false, i32 0, i32 0, null, i32 256, i1 false, null, null, i32 0, metadata !87, i32 779} ; [ DW_TAG_subprogram ]
!535 = metadata !{i32 786478, i32 0, metadata !283, metadata !"clear", metadata !"clear", metadata !"_ZNSs5clearEv", metadata !287, i32 785, metadata !425, i1 false, i1 false, i32 0, i32 0, null, i32 256, i1 false, null, null, i32 0, metadata !87, i32 785} ; [ DW_TAG_subprogram ]
!536 = metadata !{i32 786478, i32 0, metadata !283, metadata !"empty", metadata !"empty", metadata !"_ZNKSs5emptyEv", metadata !287, i32 793, metadata !537, i1 false, i1 false, i32 0, i32 0, null, i32 256, i1 false, null, null, i32 0, metadata !87, i32 793} ; [ DW_TAG_subprogram ]
!537 = metadata !{i32 786453, i32 0, metadata !"", i32 0, i32 0, i64 0, i64 0, i64 0, i32 0, null, metadata !538, i32 0, i32 0} ; [ DW_TAG_subroutine_type ]
!538 = metadata !{metadata !213, metadata !362}
!539 = metadata !{i32 786478, i32 0, metadata !283, metadata !"operator[]", metadata !"operator[]", metadata !"_ZNKSsixEy", metadata !287, i32 808, metadata !540, i1 false, i1 false, i32 0, i32 0, null, i32 256, i1 false, null, null, i32 0, metadata !87, i32 808} ; [ DW_TAG_subprogram ]
!540 = metadata !{i32 786453, i32 0, metadata !"", i32 0, i32 0, i64 0, i64 0, i64 0, i32 0, null, metadata !541, i32 0, i32 0} ; [ DW_TAG_subroutine_type ]
!541 = metadata !{metadata !542, metadata !362, metadata !378}
!542 = metadata !{i32 786454, metadata !283, metadata !"const_reference", metadata !284, i32 116, i64 0, i64 0, i64 0, i32 0, metadata !543} ; [ DW_TAG_typedef ]
!543 = metadata !{i32 786454, metadata !291, metadata !"const_reference", metadata !284, i32 94, i64 0, i64 0, i64 0, i32 0, metadata !321} ; [ DW_TAG_typedef ]
!544 = metadata !{i32 786478, i32 0, metadata !283, metadata !"operator[]", metadata !"operator[]", metadata !"_ZNSsixEy", metadata !287, i32 825, metadata !545, i1 false, i1 false, i32 0, i32 0, null, i32 256, i1 false, null, null, i32 0, metadata !87, i32 825} ; [ DW_TAG_subprogram ]
!545 = metadata !{i32 786453, i32 0, metadata !"", i32 0, i32 0, i64 0, i64 0, i64 0, i32 0, null, metadata !546, i32 0, i32 0} ; [ DW_TAG_subroutine_type ]
!546 = metadata !{metadata !547, metadata !367, metadata !378}
!547 = metadata !{i32 786454, metadata !283, metadata !"reference", metadata !284, i32 115, i64 0, i64 0, i64 0, i32 0, metadata !548} ; [ DW_TAG_typedef ]
!548 = metadata !{i32 786454, metadata !291, metadata !"reference", metadata !284, i32 93, i64 0, i64 0, i64 0, i32 0, metadata !315} ; [ DW_TAG_typedef ]
!549 = metadata !{i32 786478, i32 0, metadata !283, metadata !"at", metadata !"at", metadata !"_ZNKSs2atEy", metadata !287, i32 846, metadata !540, i1 false, i1 false, i32 0, i32 0, null, i32 256, i1 false, null, null, i32 0, metadata !87, i32 846} ; [ DW_TAG_subprogram ]
!550 = metadata !{i32 786478, i32 0, metadata !283, metadata !"at", metadata !"at", metadata !"_ZNSs2atEy", metadata !287, i32 865, metadata !545, i1 false, i1 false, i32 0, i32 0, null, i32 256, i1 false, null, null, i32 0, metadata !87, i32 865} ; [ DW_TAG_subprogram ]
!551 = metadata !{i32 786478, i32 0, metadata !283, metadata !"operator+=", metadata !"operator+=", metadata !"_ZNSspLERKSs", metadata !287, i32 880, metadata !493, i1 false, i1 false, i32 0, i32 0, null, i32 256, i1 false, null, null, i32 0, metadata !87, i32 880} ; [ DW_TAG_subprogram ]
!552 = metadata !{i32 786478, i32 0, metadata !283, metadata !"operator+=", metadata !"operator+=", metadata !"_ZNSspLEPKc", metadata !287, i32 889, metadata !497, i1 false, i1 false, i32 0, i32 0, null, i32 256, i1 false, null, null, i32 0, metadata !87, i32 889} ; [ DW_TAG_subprogram ]
!553 = metadata !{i32 786478, i32 0, metadata !283, metadata !"operator+=", metadata !"operator+=", metadata !"_ZNSspLEc", metadata !287, i32 898, metadata !500, i1 false, i1 false, i32 0, i32 0, null, i32 256, i1 false, null, null, i32 0, metadata !87, i32 898} ; [ DW_TAG_subprogram ]
!554 = metadata !{i32 786478, i32 0, metadata !283, metadata !"append", metadata !"append", metadata !"_ZNSs6appendERKSs", metadata !287, i32 921, metadata !493, i1 false, i1 false, i32 0, i32 0, null, i32 256, i1 false, null, null, i32 0, metadata !87, i32 921} ; [ DW_TAG_subprogram ]
!555 = metadata !{i32 786478, i32 0, metadata !283, metadata !"append", metadata !"append", metadata !"_ZNSs6appendERKSsyy", metadata !287, i32 936, metadata !556, i1 false, i1 false, i32 0, i32 0, null, i32 256, i1 false, null, null, i32 0, metadata !87, i32 936} ; [ DW_TAG_subprogram ]
!556 = metadata !{i32 786453, i32 0, metadata !"", i32 0, i32 0, i64 0, i64 0, i64 0, i32 0, null, metadata !557, i32 0, i32 0} ; [ DW_TAG_subroutine_type ]
!557 = metadata !{metadata !495, metadata !367, metadata !475, metadata !378, metadata !378}
!558 = metadata !{i32 786478, i32 0, metadata !283, metadata !"append", metadata !"append", metadata !"_ZNSs6appendEPKcy", metadata !287, i32 945, metadata !559, i1 false, i1 false, i32 0, i32 0, null, i32 256, i1 false, null, null, i32 0, metadata !87, i32 945} ; [ DW_TAG_subprogram ]
!559 = metadata !{i32 786453, i32 0, metadata !"", i32 0, i32 0, i64 0, i64 0, i64 0, i32 0, null, metadata !560, i32 0, i32 0} ; [ DW_TAG_subroutine_type ]
!560 = metadata !{metadata !495, metadata !367, metadata !151, metadata !378}
!561 = metadata !{i32 786478, i32 0, metadata !283, metadata !"append", metadata !"append", metadata !"_ZNSs6appendEPKc", metadata !287, i32 953, metadata !497, i1 false, i1 false, i32 0, i32 0, null, i32 256, i1 false, null, null, i32 0, metadata !87, i32 953} ; [ DW_TAG_subprogram ]
!562 = metadata !{i32 786478, i32 0, metadata !283, metadata !"append", metadata !"append", metadata !"_ZNSs6appendEyc", metadata !287, i32 968, metadata !563, i1 false, i1 false, i32 0, i32 0, null, i32 256, i1 false, null, null, i32 0, metadata !87, i32 968} ; [ DW_TAG_subprogram ]
!563 = metadata !{i32 786453, i32 0, metadata !"", i32 0, i32 0, i64 0, i64 0, i64 0, i32 0, null, metadata !564, i32 0, i32 0} ; [ DW_TAG_subroutine_type ]
!564 = metadata !{metadata !495, metadata !367, metadata !378, metadata !153}
!565 = metadata !{i32 786478, i32 0, metadata !283, metadata !"push_back", metadata !"push_back", metadata !"_ZNSs9push_backEc", metadata !287, i32 999, metadata !566, i1 false, i1 false, i32 0, i32 0, null, i32 256, i1 false, null, null, i32 0, metadata !87, i32 999} ; [ DW_TAG_subprogram ]
!566 = metadata !{i32 786453, i32 0, metadata !"", i32 0, i32 0, i64 0, i64 0, i64 0, i32 0, null, metadata !567, i32 0, i32 0} ; [ DW_TAG_subroutine_type ]
!567 = metadata !{null, metadata !367, metadata !153}
!568 = metadata !{i32 786478, i32 0, metadata !283, metadata !"assign", metadata !"assign", metadata !"_ZNSs6assignERKSs", metadata !287, i32 1014, metadata !493, i1 false, i1 false, i32 0, i32 0, null, i32 256, i1 false, null, null, i32 0, metadata !87, i32 1014} ; [ DW_TAG_subprogram ]
!569 = metadata !{i32 786478, i32 0, metadata !283, metadata !"assign", metadata !"assign", metadata !"_ZNSs6assignERKSsyy", metadata !287, i32 1046, metadata !556, i1 false, i1 false, i32 0, i32 0, null, i32 256, i1 false, null, null, i32 0, metadata !87, i32 1046} ; [ DW_TAG_subprogram ]
!570 = metadata !{i32 786478, i32 0, metadata !283, metadata !"assign", metadata !"assign", metadata !"_ZNSs6assignEPKcy", metadata !287, i32 1062, metadata !559, i1 false, i1 false, i32 0, i32 0, null, i32 256, i1 false, null, null, i32 0, metadata !87, i32 1062} ; [ DW_TAG_subprogram ]
!571 = metadata !{i32 786478, i32 0, metadata !283, metadata !"assign", metadata !"assign", metadata !"_ZNSs6assignEPKc", metadata !287, i32 1074, metadata !497, i1 false, i1 false, i32 0, i32 0, null, i32 256, i1 false, null, null, i32 0, metadata !87, i32 1074} ; [ DW_TAG_subprogram ]
!572 = metadata !{i32 786478, i32 0, metadata !283, metadata !"assign", metadata !"assign", metadata !"_ZNSs6assignEyc", metadata !287, i32 1090, metadata !563, i1 false, i1 false, i32 0, i32 0, null, i32 256, i1 false, null, null, i32 0, metadata !87, i32 1090} ; [ DW_TAG_subprogram ]
!573 = metadata !{i32 786478, i32 0, metadata !283, metadata !"insert", metadata !"insert", metadata !"_ZNSs6insertEN9__gnu_cxx17__normal_iteratorIPcSsEEyc", metadata !287, i32 1130, metadata !574, i1 false, i1 false, i32 0, i32 0, null, i32 256, i1 false, null, null, i32 0, metadata !87, i32 1130} ; [ DW_TAG_subprogram ]
!574 = metadata !{i32 786453, i32 0, metadata !"", i32 0, i32 0, i64 0, i64 0, i64 0, i32 0, null, metadata !575, i32 0, i32 0} ; [ DW_TAG_subroutine_type ]
!575 = metadata !{null, metadata !367, metadata !420, metadata !378, metadata !153}
!576 = metadata !{i32 786478, i32 0, metadata !283, metadata !"insert", metadata !"insert", metadata !"_ZNSs6insertEyRKSs", metadata !287, i32 1176, metadata !577, i1 false, i1 false, i32 0, i32 0, null, i32 256, i1 false, null, null, i32 0, metadata !87, i32 1176} ; [ DW_TAG_subprogram ]
!577 = metadata !{i32 786453, i32 0, metadata !"", i32 0, i32 0, i64 0, i64 0, i64 0, i32 0, null, metadata !578, i32 0, i32 0} ; [ DW_TAG_subroutine_type ]
!578 = metadata !{metadata !495, metadata !367, metadata !378, metadata !475}
!579 = metadata !{i32 786478, i32 0, metadata !283, metadata !"insert", metadata !"insert", metadata !"_ZNSs6insertEyRKSsyy", metadata !287, i32 1198, metadata !580, i1 false, i1 false, i32 0, i32 0, null, i32 256, i1 false, null, null, i32 0, metadata !87, i32 1198} ; [ DW_TAG_subprogram ]
!580 = metadata !{i32 786453, i32 0, metadata !"", i32 0, i32 0, i64 0, i64 0, i64 0, i32 0, null, metadata !581, i32 0, i32 0} ; [ DW_TAG_subroutine_type ]
!581 = metadata !{metadata !495, metadata !367, metadata !378, metadata !475, metadata !378, metadata !378}
!582 = metadata !{i32 786478, i32 0, metadata !283, metadata !"insert", metadata !"insert", metadata !"_ZNSs6insertEyPKcy", metadata !287, i32 1221, metadata !583, i1 false, i1 false, i32 0, i32 0, null, i32 256, i1 false, null, null, i32 0, metadata !87, i32 1221} ; [ DW_TAG_subprogram ]
!583 = metadata !{i32 786453, i32 0, metadata !"", i32 0, i32 0, i64 0, i64 0, i64 0, i32 0, null, metadata !584, i32 0, i32 0} ; [ DW_TAG_subroutine_type ]
!584 = metadata !{metadata !495, metadata !367, metadata !378, metadata !151, metadata !378}
!585 = metadata !{i32 786478, i32 0, metadata !283, metadata !"insert", metadata !"insert", metadata !"_ZNSs6insertEyPKc", metadata !287, i32 1239, metadata !586, i1 false, i1 false, i32 0, i32 0, null, i32 256, i1 false, null, null, i32 0, metadata !87, i32 1239} ; [ DW_TAG_subprogram ]
!586 = metadata !{i32 786453, i32 0, metadata !"", i32 0, i32 0, i64 0, i64 0, i64 0, i32 0, null, metadata !587, i32 0, i32 0} ; [ DW_TAG_subroutine_type ]
!587 = metadata !{metadata !495, metadata !367, metadata !378, metadata !151}
!588 = metadata !{i32 786478, i32 0, metadata !283, metadata !"insert", metadata !"insert", metadata !"_ZNSs6insertEyyc", metadata !287, i32 1262, metadata !589, i1 false, i1 false, i32 0, i32 0, null, i32 256, i1 false, null, null, i32 0, metadata !87, i32 1262} ; [ DW_TAG_subprogram ]
!589 = metadata !{i32 786453, i32 0, metadata !"", i32 0, i32 0, i64 0, i64 0, i64 0, i32 0, null, metadata !590, i32 0, i32 0} ; [ DW_TAG_subroutine_type ]
!590 = metadata !{metadata !495, metadata !367, metadata !378, metadata !378, metadata !153}
!591 = metadata !{i32 786478, i32 0, metadata !283, metadata !"insert", metadata !"insert", metadata !"_ZNSs6insertEN9__gnu_cxx17__normal_iteratorIPcSsEEc", metadata !287, i32 1279, metadata !592, i1 false, i1 false, i32 0, i32 0, null, i32 256, i1 false, null, null, i32 0, metadata !87, i32 1279} ; [ DW_TAG_subprogram ]
!592 = metadata !{i32 786453, i32 0, metadata !"", i32 0, i32 0, i64 0, i64 0, i64 0, i32 0, null, metadata !593, i32 0, i32 0} ; [ DW_TAG_subroutine_type ]
!593 = metadata !{metadata !420, metadata !367, metadata !420, metadata !153}
!594 = metadata !{i32 786478, i32 0, metadata !283, metadata !"erase", metadata !"erase", metadata !"_ZNSs5eraseEyy", metadata !287, i32 1303, metadata !595, i1 false, i1 false, i32 0, i32 0, null, i32 256, i1 false, null, null, i32 0, metadata !87, i32 1303} ; [ DW_TAG_subprogram ]
!595 = metadata !{i32 786453, i32 0, metadata !"", i32 0, i32 0, i64 0, i64 0, i64 0, i32 0, null, metadata !596, i32 0, i32 0} ; [ DW_TAG_subroutine_type ]
!596 = metadata !{metadata !495, metadata !367, metadata !378, metadata !378}
!597 = metadata !{i32 786478, i32 0, metadata !283, metadata !"erase", metadata !"erase", metadata !"_ZNSs5eraseEN9__gnu_cxx17__normal_iteratorIPcSsEE", metadata !287, i32 1319, metadata !598, i1 false, i1 false, i32 0, i32 0, null, i32 256, i1 false, null, null, i32 0, metadata !87, i32 1319} ; [ DW_TAG_subprogram ]
!598 = metadata !{i32 786453, i32 0, metadata !"", i32 0, i32 0, i64 0, i64 0, i64 0, i32 0, null, metadata !599, i32 0, i32 0} ; [ DW_TAG_subroutine_type ]
!599 = metadata !{metadata !420, metadata !367, metadata !420}
!600 = metadata !{i32 786478, i32 0, metadata !283, metadata !"erase", metadata !"erase", metadata !"_ZNSs5eraseEN9__gnu_cxx17__normal_iteratorIPcSsEES2_", metadata !287, i32 1339, metadata !601, i1 false, i1 false, i32 0, i32 0, null, i32 256, i1 false, null, null, i32 0, metadata !87, i32 1339} ; [ DW_TAG_subprogram ]
!601 = metadata !{i32 786453, i32 0, metadata !"", i32 0, i32 0, i64 0, i64 0, i64 0, i32 0, null, metadata !602, i32 0, i32 0} ; [ DW_TAG_subroutine_type ]
!602 = metadata !{metadata !420, metadata !367, metadata !420, metadata !420}
!603 = metadata !{i32 786478, i32 0, metadata !283, metadata !"replace", metadata !"replace", metadata !"_ZNSs7replaceEyyRKSs", metadata !287, i32 1358, metadata !604, i1 false, i1 false, i32 0, i32 0, null, i32 256, i1 false, null, null, i32 0, metadata !87, i32 1358} ; [ DW_TAG_subprogram ]
!604 = metadata !{i32 786453, i32 0, metadata !"", i32 0, i32 0, i64 0, i64 0, i64 0, i32 0, null, metadata !605, i32 0, i32 0} ; [ DW_TAG_subroutine_type ]
!605 = metadata !{metadata !495, metadata !367, metadata !378, metadata !378, metadata !475}
!606 = metadata !{i32 786478, i32 0, metadata !283, metadata !"replace", metadata !"replace", metadata !"_ZNSs7replaceEyyRKSsyy", metadata !287, i32 1380, metadata !607, i1 false, i1 false, i32 0, i32 0, null, i32 256, i1 false, null, null, i32 0, metadata !87, i32 1380} ; [ DW_TAG_subprogram ]
!607 = metadata !{i32 786453, i32 0, metadata !"", i32 0, i32 0, i64 0, i64 0, i64 0, i32 0, null, metadata !608, i32 0, i32 0} ; [ DW_TAG_subroutine_type ]
!608 = metadata !{metadata !495, metadata !367, metadata !378, metadata !378, metadata !475, metadata !378, metadata !378}
!609 = metadata !{i32 786478, i32 0, metadata !283, metadata !"replace", metadata !"replace", metadata !"_ZNSs7replaceEyyPKcy", metadata !287, i32 1404, metadata !610, i1 false, i1 false, i32 0, i32 0, null, i32 256, i1 false, null, null, i32 0, metadata !87, i32 1404} ; [ DW_TAG_subprogram ]
!610 = metadata !{i32 786453, i32 0, metadata !"", i32 0, i32 0, i64 0, i64 0, i64 0, i32 0, null, metadata !611, i32 0, i32 0} ; [ DW_TAG_subroutine_type ]
!611 = metadata !{metadata !495, metadata !367, metadata !378, metadata !378, metadata !151, metadata !378}
!612 = metadata !{i32 786478, i32 0, metadata !283, metadata !"replace", metadata !"replace", metadata !"_ZNSs7replaceEyyPKc", metadata !287, i32 1423, metadata !613, i1 false, i1 false, i32 0, i32 0, null, i32 256, i1 false, null, null, i32 0, metadata !87, i32 1423} ; [ DW_TAG_subprogram ]
!613 = metadata !{i32 786453, i32 0, metadata !"", i32 0, i32 0, i64 0, i64 0, i64 0, i32 0, null, metadata !614, i32 0, i32 0} ; [ DW_TAG_subroutine_type ]
!614 = metadata !{metadata !495, metadata !367, metadata !378, metadata !378, metadata !151}
!615 = metadata !{i32 786478, i32 0, metadata !283, metadata !"replace", metadata !"replace", metadata !"_ZNSs7replaceEyyyc", metadata !287, i32 1446, metadata !616, i1 false, i1 false, i32 0, i32 0, null, i32 256, i1 false, null, null, i32 0, metadata !87, i32 1446} ; [ DW_TAG_subprogram ]
!616 = metadata !{i32 786453, i32 0, metadata !"", i32 0, i32 0, i64 0, i64 0, i64 0, i32 0, null, metadata !617, i32 0, i32 0} ; [ DW_TAG_subroutine_type ]
!617 = metadata !{metadata !495, metadata !367, metadata !378, metadata !378, metadata !378, metadata !153}
!618 = metadata !{i32 786478, i32 0, metadata !283, metadata !"replace", metadata !"replace", metadata !"_ZNSs7replaceEN9__gnu_cxx17__normal_iteratorIPcSsEES2_RKSs", metadata !287, i32 1464, metadata !619, i1 false, i1 false, i32 0, i32 0, null, i32 256, i1 false, null, null, i32 0, metadata !87, i32 1464} ; [ DW_TAG_subprogram ]
!619 = metadata !{i32 786453, i32 0, metadata !"", i32 0, i32 0, i64 0, i64 0, i64 0, i32 0, null, metadata !620, i32 0, i32 0} ; [ DW_TAG_subroutine_type ]
!620 = metadata !{metadata !495, metadata !367, metadata !420, metadata !420, metadata !475}
!621 = metadata !{i32 786478, i32 0, metadata !283, metadata !"replace", metadata !"replace", metadata !"_ZNSs7replaceEN9__gnu_cxx17__normal_iteratorIPcSsEES2_PKcy", metadata !287, i32 1482, metadata !622, i1 false, i1 false, i32 0, i32 0, null, i32 256, i1 false, null, null, i32 0, metadata !87, i32 1482} ; [ DW_TAG_subprogram ]
!622 = metadata !{i32 786453, i32 0, metadata !"", i32 0, i32 0, i64 0, i64 0, i64 0, i32 0, null, metadata !623, i32 0, i32 0} ; [ DW_TAG_subroutine_type ]
!623 = metadata !{metadata !495, metadata !367, metadata !420, metadata !420, metadata !151, metadata !378}
!624 = metadata !{i32 786478, i32 0, metadata !283, metadata !"replace", metadata !"replace", metadata !"_ZNSs7replaceEN9__gnu_cxx17__normal_iteratorIPcSsEES2_PKc", metadata !287, i32 1503, metadata !625, i1 false, i1 false, i32 0, i32 0, null, i32 256, i1 false, null, null, i32 0, metadata !87, i32 1503} ; [ DW_TAG_subprogram ]
!625 = metadata !{i32 786453, i32 0, metadata !"", i32 0, i32 0, i64 0, i64 0, i64 0, i32 0, null, metadata !626, i32 0, i32 0} ; [ DW_TAG_subroutine_type ]
!626 = metadata !{metadata !495, metadata !367, metadata !420, metadata !420, metadata !151}
!627 = metadata !{i32 786478, i32 0, metadata !283, metadata !"replace", metadata !"replace", metadata !"_ZNSs7replaceEN9__gnu_cxx17__normal_iteratorIPcSsEES2_yc", metadata !287, i32 1524, metadata !628, i1 false, i1 false, i32 0, i32 0, null, i32 256, i1 false, null, null, i32 0, metadata !87, i32 1524} ; [ DW_TAG_subprogram ]
!628 = metadata !{i32 786453, i32 0, metadata !"", i32 0, i32 0, i64 0, i64 0, i64 0, i32 0, null, metadata !629, i32 0, i32 0} ; [ DW_TAG_subroutine_type ]
!629 = metadata !{metadata !495, metadata !367, metadata !420, metadata !420, metadata !378, metadata !153}
!630 = metadata !{i32 786478, i32 0, metadata !283, metadata !"replace", metadata !"replace", metadata !"_ZNSs7replaceEN9__gnu_cxx17__normal_iteratorIPcSsEES2_S1_S1_", metadata !287, i32 1560, metadata !631, i1 false, i1 false, i32 0, i32 0, null, i32 256, i1 false, null, null, i32 0, metadata !87, i32 1560} ; [ DW_TAG_subprogram ]
!631 = metadata !{i32 786453, i32 0, metadata !"", i32 0, i32 0, i64 0, i64 0, i64 0, i32 0, null, metadata !632, i32 0, i32 0} ; [ DW_TAG_subroutine_type ]
!632 = metadata !{metadata !495, metadata !367, metadata !420, metadata !420, metadata !188, metadata !188}
!633 = metadata !{i32 786478, i32 0, metadata !283, metadata !"replace", metadata !"replace", metadata !"_ZNSs7replaceEN9__gnu_cxx17__normal_iteratorIPcSsEES2_PKcS4_", metadata !287, i32 1570, metadata !634, i1 false, i1 false, i32 0, i32 0, null, i32 256, i1 false, null, null, i32 0, metadata !87, i32 1570} ; [ DW_TAG_subprogram ]
!634 = metadata !{i32 786453, i32 0, metadata !"", i32 0, i32 0, i64 0, i64 0, i64 0, i32 0, null, metadata !635, i32 0, i32 0} ; [ DW_TAG_subroutine_type ]
!635 = metadata !{metadata !495, metadata !367, metadata !420, metadata !420, metadata !151, metadata !151}
!636 = metadata !{i32 786478, i32 0, metadata !283, metadata !"replace", metadata !"replace", metadata !"_ZNSs7replaceEN9__gnu_cxx17__normal_iteratorIPcSsEES2_S2_S2_", metadata !287, i32 1581, metadata !637, i1 false, i1 false, i32 0, i32 0, null, i32 256, i1 false, null, null, i32 0, metadata !87, i32 1581} ; [ DW_TAG_subprogram ]
!637 = metadata !{i32 786453, i32 0, metadata !"", i32 0, i32 0, i64 0, i64 0, i64 0, i32 0, null, metadata !638, i32 0, i32 0} ; [ DW_TAG_subroutine_type ]
!638 = metadata !{metadata !495, metadata !367, metadata !420, metadata !420, metadata !420, metadata !420}
!639 = metadata !{i32 786478, i32 0, metadata !283, metadata !"replace", metadata !"replace", metadata !"_ZNSs7replaceEN9__gnu_cxx17__normal_iteratorIPcSsEES2_NS0_IPKcSsEES5_", metadata !287, i32 1591, metadata !640, i1 false, i1 false, i32 0, i32 0, null, i32 256, i1 false, null, null, i32 0, metadata !87, i32 1591} ; [ DW_TAG_subprogram ]
!640 = metadata !{i32 786453, i32 0, metadata !"", i32 0, i32 0, i64 0, i64 0, i64 0, i32 0, null, metadata !641, i32 0, i32 0} ; [ DW_TAG_subroutine_type ]
!641 = metadata !{metadata !495, metadata !367, metadata !420, metadata !420, metadata !452, metadata !452}
!642 = metadata !{i32 786478, i32 0, metadata !283, metadata !"_M_replace_aux", metadata !"_M_replace_aux", metadata !"_ZNSs14_M_replace_auxEyyyc", metadata !287, i32 1633, metadata !616, i1 false, i1 false, i32 0, i32 0, null, i32 257, i1 false, null, null, i32 0, metadata !87, i32 1633} ; [ DW_TAG_subprogram ]
!643 = metadata !{i32 786478, i32 0, metadata !283, metadata !"_M_replace_safe", metadata !"_M_replace_safe", metadata !"_ZNSs15_M_replace_safeEyyPKcy", metadata !287, i32 1637, metadata !610, i1 false, i1 false, i32 0, i32 0, null, i32 257, i1 false, null, null, i32 0, metadata !87, i32 1637} ; [ DW_TAG_subprogram ]
!644 = metadata !{i32 786478, i32 0, metadata !283, metadata !"_S_construct_aux_2", metadata !"_S_construct_aux_2", metadata !"_ZNSs18_S_construct_aux_2EycRKSaIcE", metadata !287, i32 1661, metadata !645, i1 false, i1 false, i32 0, i32 0, null, i32 257, i1 false, null, null, i32 0, metadata !87, i32 1661} ; [ DW_TAG_subprogram ]
!645 = metadata !{i32 786453, i32 0, metadata !"", i32 0, i32 0, i64 0, i64 0, i64 0, i32 0, null, metadata !646, i32 0, i32 0} ; [ DW_TAG_subroutine_type ]
!646 = metadata !{metadata !188, metadata !378, metadata !153, metadata !349}
!647 = metadata !{i32 786478, i32 0, metadata !283, metadata !"_S_construct", metadata !"_S_construct", metadata !"_ZNSs12_S_constructEycRKSaIcE", metadata !287, i32 1686, metadata !645, i1 false, i1 false, i32 0, i32 0, null, i32 257, i1 false, null, null, i32 0, metadata !87, i32 1686} ; [ DW_TAG_subprogram ]
!648 = metadata !{i32 786478, i32 0, metadata !283, metadata !"copy", metadata !"copy", metadata !"_ZNKSs4copyEPcyy", metadata !287, i32 1702, metadata !649, i1 false, i1 false, i32 0, i32 0, null, i32 256, i1 false, null, null, i32 0, metadata !87, i32 1702} ; [ DW_TAG_subprogram ]
!649 = metadata !{i32 786453, i32 0, metadata !"", i32 0, i32 0, i64 0, i64 0, i64 0, i32 0, null, metadata !650, i32 0, i32 0} ; [ DW_TAG_subroutine_type ]
!650 = metadata !{metadata !378, metadata !362, metadata !188, metadata !378, metadata !378}
!651 = metadata !{i32 786478, i32 0, metadata !283, metadata !"swap", metadata !"swap", metadata !"_ZNSs4swapERSs", metadata !287, i32 1712, metadata !652, i1 false, i1 false, i32 0, i32 0, null, i32 256, i1 false, null, null, i32 0, metadata !87, i32 1712} ; [ DW_TAG_subprogram ]
!652 = metadata !{i32 786453, i32 0, metadata !"", i32 0, i32 0, i64 0, i64 0, i64 0, i32 0, null, metadata !653, i32 0, i32 0} ; [ DW_TAG_subroutine_type ]
!653 = metadata !{null, metadata !367, metadata !495}
!654 = metadata !{i32 786478, i32 0, metadata !283, metadata !"c_str", metadata !"c_str", metadata !"_ZNKSs5c_strEv", metadata !287, i32 1722, metadata !655, i1 false, i1 false, i32 0, i32 0, null, i32 256, i1 false, null, null, i32 0, metadata !87, i32 1722} ; [ DW_TAG_subprogram ]
!655 = metadata !{i32 786453, i32 0, metadata !"", i32 0, i32 0, i64 0, i64 0, i64 0, i32 0, null, metadata !656, i32 0, i32 0} ; [ DW_TAG_subroutine_type ]
!656 = metadata !{metadata !151, metadata !362}
!657 = metadata !{i32 786478, i32 0, metadata !283, metadata !"data", metadata !"data", metadata !"_ZNKSs4dataEv", metadata !287, i32 1732, metadata !655, i1 false, i1 false, i32 0, i32 0, null, i32 256, i1 false, null, null, i32 0, metadata !87, i32 1732} ; [ DW_TAG_subprogram ]
!658 = metadata !{i32 786478, i32 0, metadata !283, metadata !"get_allocator", metadata !"get_allocator", metadata !"_ZNKSs13get_allocatorEv", metadata !287, i32 1739, metadata !659, i1 false, i1 false, i32 0, i32 0, null, i32 256, i1 false, null, null, i32 0, metadata !87, i32 1739} ; [ DW_TAG_subprogram ]
!659 = metadata !{i32 786453, i32 0, metadata !"", i32 0, i32 0, i64 0, i64 0, i64 0, i32 0, null, metadata !660, i32 0, i32 0} ; [ DW_TAG_subroutine_type ]
!660 = metadata !{metadata !661, metadata !362}
!661 = metadata !{i32 786454, metadata !283, metadata !"allocator_type", metadata !284, i32 112, i64 0, i64 0, i64 0, i32 0, metadata !291} ; [ DW_TAG_typedef ]
!662 = metadata !{i32 786478, i32 0, metadata !283, metadata !"find", metadata !"find", metadata !"_ZNKSs4findEPKcyy", metadata !287, i32 1754, metadata !663, i1 false, i1 false, i32 0, i32 0, null, i32 256, i1 false, null, null, i32 0, metadata !87, i32 1754} ; [ DW_TAG_subprogram ]
!663 = metadata !{i32 786453, i32 0, metadata !"", i32 0, i32 0, i64 0, i64 0, i64 0, i32 0, null, metadata !664, i32 0, i32 0} ; [ DW_TAG_subroutine_type ]
!664 = metadata !{metadata !378, metadata !362, metadata !151, metadata !378, metadata !378}
!665 = metadata !{i32 786478, i32 0, metadata !283, metadata !"find", metadata !"find", metadata !"_ZNKSs4findERKSsy", metadata !287, i32 1767, metadata !666, i1 false, i1 false, i32 0, i32 0, null, i32 256, i1 false, null, null, i32 0, metadata !87, i32 1767} ; [ DW_TAG_subprogram ]
!666 = metadata !{i32 786453, i32 0, metadata !"", i32 0, i32 0, i64 0, i64 0, i64 0, i32 0, null, metadata !667, i32 0, i32 0} ; [ DW_TAG_subroutine_type ]
!667 = metadata !{metadata !378, metadata !362, metadata !475, metadata !378}
!668 = metadata !{i32 786478, i32 0, metadata !283, metadata !"find", metadata !"find", metadata !"_ZNKSs4findEPKcy", metadata !287, i32 1781, metadata !669, i1 false, i1 false, i32 0, i32 0, null, i32 256, i1 false, null, null, i32 0, metadata !87, i32 1781} ; [ DW_TAG_subprogram ]
!669 = metadata !{i32 786453, i32 0, metadata !"", i32 0, i32 0, i64 0, i64 0, i64 0, i32 0, null, metadata !670, i32 0, i32 0} ; [ DW_TAG_subroutine_type ]
!670 = metadata !{metadata !378, metadata !362, metadata !151, metadata !378}
!671 = metadata !{i32 786478, i32 0, metadata !283, metadata !"find", metadata !"find", metadata !"_ZNKSs4findEcy", metadata !287, i32 1798, metadata !672, i1 false, i1 false, i32 0, i32 0, null, i32 256, i1 false, null, null, i32 0, metadata !87, i32 1798} ; [ DW_TAG_subprogram ]
!672 = metadata !{i32 786453, i32 0, metadata !"", i32 0, i32 0, i64 0, i64 0, i64 0, i32 0, null, metadata !673, i32 0, i32 0} ; [ DW_TAG_subroutine_type ]
!673 = metadata !{metadata !378, metadata !362, metadata !153, metadata !378}
!674 = metadata !{i32 786478, i32 0, metadata !283, metadata !"rfind", metadata !"rfind", metadata !"_ZNKSs5rfindERKSsy", metadata !287, i32 1811, metadata !666, i1 false, i1 false, i32 0, i32 0, null, i32 256, i1 false, null, null, i32 0, metadata !87, i32 1811} ; [ DW_TAG_subprogram ]
!675 = metadata !{i32 786478, i32 0, metadata !283, metadata !"rfind", metadata !"rfind", metadata !"_ZNKSs5rfindEPKcyy", metadata !287, i32 1826, metadata !663, i1 false, i1 false, i32 0, i32 0, null, i32 256, i1 false, null, null, i32 0, metadata !87, i32 1826} ; [ DW_TAG_subprogram ]
!676 = metadata !{i32 786478, i32 0, metadata !283, metadata !"rfind", metadata !"rfind", metadata !"_ZNKSs5rfindEPKcy", metadata !287, i32 1839, metadata !669, i1 false, i1 false, i32 0, i32 0, null, i32 256, i1 false, null, null, i32 0, metadata !87, i32 1839} ; [ DW_TAG_subprogram ]
!677 = metadata !{i32 786478, i32 0, metadata !283, metadata !"rfind", metadata !"rfind", metadata !"_ZNKSs5rfindEcy", metadata !287, i32 1856, metadata !672, i1 false, i1 false, i32 0, i32 0, null, i32 256, i1 false, null, null, i32 0, metadata !87, i32 1856} ; [ DW_TAG_subprogram ]
!678 = metadata !{i32 786478, i32 0, metadata !283, metadata !"find_first_of", metadata !"find_first_of", metadata !"_ZNKSs13find_first_ofERKSsy", metadata !287, i32 1869, metadata !666, i1 false, i1 false, i32 0, i32 0, null, i32 256, i1 false, null, null, i32 0, metadata !87, i32 1869} ; [ DW_TAG_subprogram ]
!679 = metadata !{i32 786478, i32 0, metadata !283, metadata !"find_first_of", metadata !"find_first_of", metadata !"_ZNKSs13find_first_ofEPKcyy", metadata !287, i32 1884, metadata !663, i1 false, i1 false, i32 0, i32 0, null, i32 256, i1 false, null, null, i32 0, metadata !87, i32 1884} ; [ DW_TAG_subprogram ]
!680 = metadata !{i32 786478, i32 0, metadata !283, metadata !"find_first_of", metadata !"find_first_of", metadata !"_ZNKSs13find_first_ofEPKcy", metadata !287, i32 1897, metadata !669, i1 false, i1 false, i32 0, i32 0, null, i32 256, i1 false, null, null, i32 0, metadata !87, i32 1897} ; [ DW_TAG_subprogram ]
!681 = metadata !{i32 786478, i32 0, metadata !283, metadata !"find_first_of", metadata !"find_first_of", metadata !"_ZNKSs13find_first_ofEcy", metadata !287, i32 1916, metadata !672, i1 false, i1 false, i32 0, i32 0, null, i32 256, i1 false, null, null, i32 0, metadata !87, i32 1916} ; [ DW_TAG_subprogram ]
!682 = metadata !{i32 786478, i32 0, metadata !283, metadata !"find_last_of", metadata !"find_last_of", metadata !"_ZNKSs12find_last_ofERKSsy", metadata !287, i32 1930, metadata !666, i1 false, i1 false, i32 0, i32 0, null, i32 256, i1 false, null, null, i32 0, metadata !87, i32 1930} ; [ DW_TAG_subprogram ]
!683 = metadata !{i32 786478, i32 0, metadata !283, metadata !"find_last_of", metadata !"find_last_of", metadata !"_ZNKSs12find_last_ofEPKcyy", metadata !287, i32 1945, metadata !663, i1 false, i1 false, i32 0, i32 0, null, i32 256, i1 false, null, null, i32 0, metadata !87, i32 1945} ; [ DW_TAG_subprogram ]
!684 = metadata !{i32 786478, i32 0, metadata !283, metadata !"find_last_of", metadata !"find_last_of", metadata !"_ZNKSs12find_last_ofEPKcy", metadata !287, i32 1958, metadata !669, i1 false, i1 false, i32 0, i32 0, null, i32 256, i1 false, null, null, i32 0, metadata !87, i32 1958} ; [ DW_TAG_subprogram ]
!685 = metadata !{i32 786478, i32 0, metadata !283, metadata !"find_last_of", metadata !"find_last_of", metadata !"_ZNKSs12find_last_ofEcy", metadata !287, i32 1977, metadata !672, i1 false, i1 false, i32 0, i32 0, null, i32 256, i1 false, null, null, i32 0, metadata !87, i32 1977} ; [ DW_TAG_subprogram ]
!686 = metadata !{i32 786478, i32 0, metadata !283, metadata !"find_first_not_of", metadata !"find_first_not_of", metadata !"_ZNKSs17find_first_not_ofERKSsy", metadata !287, i32 1991, metadata !666, i1 false, i1 false, i32 0, i32 0, null, i32 256, i1 false, null, null, i32 0, metadata !87, i32 1991} ; [ DW_TAG_subprogram ]
!687 = metadata !{i32 786478, i32 0, metadata !283, metadata !"find_first_not_of", metadata !"find_first_not_of", metadata !"_ZNKSs17find_first_not_ofEPKcyy", metadata !287, i32 2006, metadata !663, i1 false, i1 false, i32 0, i32 0, null, i32 256, i1 false, null, null, i32 0, metadata !87, i32 2006} ; [ DW_TAG_subprogram ]
!688 = metadata !{i32 786478, i32 0, metadata !283, metadata !"find_first_not_of", metadata !"find_first_not_of", metadata !"_ZNKSs17find_first_not_ofEPKcy", metadata !287, i32 2020, metadata !669, i1 false, i1 false, i32 0, i32 0, null, i32 256, i1 false, null, null, i32 0, metadata !87, i32 2020} ; [ DW_TAG_subprogram ]
!689 = metadata !{i32 786478, i32 0, metadata !283, metadata !"find_first_not_of", metadata !"find_first_not_of", metadata !"_ZNKSs17find_first_not_ofEcy", metadata !287, i32 2037, metadata !672, i1 false, i1 false, i32 0, i32 0, null, i32 256, i1 false, null, null, i32 0, metadata !87, i32 2037} ; [ DW_TAG_subprogram ]
!690 = metadata !{i32 786478, i32 0, metadata !283, metadata !"find_last_not_of", metadata !"find_last_not_of", metadata !"_ZNKSs16find_last_not_ofERKSsy", metadata !287, i32 2050, metadata !666, i1 false, i1 false, i32 0, i32 0, null, i32 256, i1 false, null, null, i32 0, metadata !87, i32 2050} ; [ DW_TAG_subprogram ]
!691 = metadata !{i32 786478, i32 0, metadata !283, metadata !"find_last_not_of", metadata !"find_last_not_of", metadata !"_ZNKSs16find_last_not_ofEPKcyy", metadata !287, i32 2066, metadata !663, i1 false, i1 false, i32 0, i32 0, null, i32 256, i1 false, null, null, i32 0, metadata !87, i32 2066} ; [ DW_TAG_subprogram ]
!692 = metadata !{i32 786478, i32 0, metadata !283, metadata !"find_last_not_of", metadata !"find_last_not_of", metadata !"_ZNKSs16find_last_not_ofEPKcy", metadata !287, i32 2079, metadata !669, i1 false, i1 false, i32 0, i32 0, null, i32 256, i1 false, null, null, i32 0, metadata !87, i32 2079} ; [ DW_TAG_subprogram ]
!693 = metadata !{i32 786478, i32 0, metadata !283, metadata !"find_last_not_of", metadata !"find_last_not_of", metadata !"_ZNKSs16find_last_not_ofEcy", metadata !287, i32 2096, metadata !672, i1 false, i1 false, i32 0, i32 0, null, i32 256, i1 false, null, null, i32 0, metadata !87, i32 2096} ; [ DW_TAG_subprogram ]
!694 = metadata !{i32 786478, i32 0, metadata !283, metadata !"substr", metadata !"substr", metadata !"_ZNKSs6substrEyy", metadata !287, i32 2111, metadata !695, i1 false, i1 false, i32 0, i32 0, null, i32 256, i1 false, null, null, i32 0, metadata !87, i32 2111} ; [ DW_TAG_subprogram ]
!695 = metadata !{i32 786453, i32 0, metadata !"", i32 0, i32 0, i64 0, i64 0, i64 0, i32 0, null, metadata !696, i32 0, i32 0} ; [ DW_TAG_subroutine_type ]
!696 = metadata !{metadata !283, metadata !362, metadata !378, metadata !378}
!697 = metadata !{i32 786478, i32 0, metadata !283, metadata !"compare", metadata !"compare", metadata !"_ZNKSs7compareERKSs", metadata !287, i32 2129, metadata !698, i1 false, i1 false, i32 0, i32 0, null, i32 256, i1 false, null, null, i32 0, metadata !87, i32 2129} ; [ DW_TAG_subprogram ]
!698 = metadata !{i32 786453, i32 0, metadata !"", i32 0, i32 0, i64 0, i64 0, i64 0, i32 0, null, metadata !699, i32 0, i32 0} ; [ DW_TAG_subroutine_type ]
!699 = metadata !{metadata !56, metadata !362, metadata !475}
!700 = metadata !{i32 786478, i32 0, metadata !283, metadata !"compare", metadata !"compare", metadata !"_ZNKSs7compareEyyRKSs", metadata !287, i32 2159, metadata !701, i1 false, i1 false, i32 0, i32 0, null, i32 256, i1 false, null, null, i32 0, metadata !87, i32 2159} ; [ DW_TAG_subprogram ]
!701 = metadata !{i32 786453, i32 0, metadata !"", i32 0, i32 0, i64 0, i64 0, i64 0, i32 0, null, metadata !702, i32 0, i32 0} ; [ DW_TAG_subroutine_type ]
!702 = metadata !{metadata !56, metadata !362, metadata !378, metadata !378, metadata !475}
!703 = metadata !{i32 786478, i32 0, metadata !283, metadata !"compare", metadata !"compare", metadata !"_ZNKSs7compareEyyRKSsyy", metadata !287, i32 2183, metadata !704, i1 false, i1 false, i32 0, i32 0, null, i32 256, i1 false, null, null, i32 0, metadata !87, i32 2183} ; [ DW_TAG_subprogram ]
!704 = metadata !{i32 786453, i32 0, metadata !"", i32 0, i32 0, i64 0, i64 0, i64 0, i32 0, null, metadata !705, i32 0, i32 0} ; [ DW_TAG_subroutine_type ]
!705 = metadata !{metadata !56, metadata !362, metadata !378, metadata !378, metadata !475, metadata !378, metadata !378}
!706 = metadata !{i32 786478, i32 0, metadata !283, metadata !"compare", metadata !"compare", metadata !"_ZNKSs7compareEPKc", metadata !287, i32 2201, metadata !707, i1 false, i1 false, i32 0, i32 0, null, i32 256, i1 false, null, null, i32 0, metadata !87, i32 2201} ; [ DW_TAG_subprogram ]
!707 = metadata !{i32 786453, i32 0, metadata !"", i32 0, i32 0, i64 0, i64 0, i64 0, i32 0, null, metadata !708, i32 0, i32 0} ; [ DW_TAG_subroutine_type ]
!708 = metadata !{metadata !56, metadata !362, metadata !151}
!709 = metadata !{i32 786478, i32 0, metadata !283, metadata !"compare", metadata !"compare", metadata !"_ZNKSs7compareEyyPKc", metadata !287, i32 2224, metadata !710, i1 false, i1 false, i32 0, i32 0, null, i32 256, i1 false, null, null, i32 0, metadata !87, i32 2224} ; [ DW_TAG_subprogram ]
!710 = metadata !{i32 786453, i32 0, metadata !"", i32 0, i32 0, i64 0, i64 0, i64 0, i32 0, null, metadata !711, i32 0, i32 0} ; [ DW_TAG_subroutine_type ]
!711 = metadata !{metadata !56, metadata !362, metadata !378, metadata !378, metadata !151}
!712 = metadata !{i32 786478, i32 0, metadata !283, metadata !"compare", metadata !"compare", metadata !"_ZNKSs7compareEyyPKcy", metadata !287, i32 2249, metadata !713, i1 false, i1 false, i32 0, i32 0, null, i32 256, i1 false, null, null, i32 0, metadata !87, i32 2249} ; [ DW_TAG_subprogram ]
!713 = metadata !{i32 786453, i32 0, metadata !"", i32 0, i32 0, i64 0, i64 0, i64 0, i32 0, null, metadata !714, i32 0, i32 0} ; [ DW_TAG_subroutine_type ]
!714 = metadata !{metadata !56, metadata !362, metadata !378, metadata !378, metadata !151, metadata !378}
!715 = metadata !{metadata !716, metadata !717, metadata !770}
!716 = metadata !{i32 786479, null, metadata !"_CharT", metadata !153, null, i32 0, i32 0} ; [ DW_TAG_template_type_parameter ]
!717 = metadata !{i32 786479, null, metadata !"_Traits", metadata !718, null, i32 0, i32 0} ; [ DW_TAG_template_type_parameter ]
!718 = metadata !{i32 786434, metadata !719, metadata !"char_traits<char>", metadata !720, i32 236, i64 8, i64 8, i32 0, i32 0, null, metadata !721, i32 0, null, metadata !769} ; [ DW_TAG_class_type ]
!719 = metadata !{i32 786489, null, metadata !"std", metadata !720, i32 214} ; [ DW_TAG_namespace ]
!720 = metadata !{i32 786473, metadata !"C:/Dev/Xilinx/Vivado/2017.4/win64/tools/clang/bin\5C..\5Clib\5Cclang\5C3.1/../../../include/c++/4.5.2\5Cbits/char_traits.h", metadata !"D:\5COneDrive\5CUVA\5Ccrypto\5CAES_code\5CVivadoHLS", null} ; [ DW_TAG_file_type ]
!721 = metadata !{metadata !722, metadata !729, metadata !732, metadata !733, metadata !737, metadata !740, metadata !743, metadata !747, metadata !748, metadata !751, metadata !757, metadata !760, metadata !763, metadata !766}
!722 = metadata !{i32 786478, i32 0, metadata !718, metadata !"assign", metadata !"assign", metadata !"_ZNSt11char_traitsIcE6assignERcRKc", metadata !720, i32 245, metadata !723, i1 false, i1 false, i32 0, i32 0, null, i32 256, i1 false, null, null, i32 0, metadata !87, i32 245} ; [ DW_TAG_subprogram ]
!723 = metadata !{i32 786453, i32 0, metadata !"", i32 0, i32 0, i64 0, i64 0, i64 0, i32 0, null, metadata !724, i32 0, i32 0} ; [ DW_TAG_subroutine_type ]
!724 = metadata !{null, metadata !725, metadata !727}
!725 = metadata !{i32 786448, null, null, null, i32 0, i64 0, i64 0, i64 0, i32 0, metadata !726} ; [ DW_TAG_reference_type ]
!726 = metadata !{i32 786454, metadata !718, metadata !"char_type", metadata !720, i32 238, i64 0, i64 0, i64 0, i32 0, metadata !153} ; [ DW_TAG_typedef ]
!727 = metadata !{i32 786448, null, null, null, i32 0, i64 0, i64 0, i64 0, i32 0, metadata !728} ; [ DW_TAG_reference_type ]
!728 = metadata !{i32 786470, null, metadata !"", null, i32 0, i64 0, i64 0, i64 0, i32 0, metadata !726} ; [ DW_TAG_const_type ]
!729 = metadata !{i32 786478, i32 0, metadata !718, metadata !"eq", metadata !"eq", metadata !"_ZNSt11char_traitsIcE2eqERKcS2_", metadata !720, i32 249, metadata !730, i1 false, i1 false, i32 0, i32 0, null, i32 256, i1 false, null, null, i32 0, metadata !87, i32 249} ; [ DW_TAG_subprogram ]
!730 = metadata !{i32 786453, i32 0, metadata !"", i32 0, i32 0, i64 0, i64 0, i64 0, i32 0, null, metadata !731, i32 0, i32 0} ; [ DW_TAG_subroutine_type ]
!731 = metadata !{metadata !213, metadata !727, metadata !727}
!732 = metadata !{i32 786478, i32 0, metadata !718, metadata !"lt", metadata !"lt", metadata !"_ZNSt11char_traitsIcE2ltERKcS2_", metadata !720, i32 253, metadata !730, i1 false, i1 false, i32 0, i32 0, null, i32 256, i1 false, null, null, i32 0, metadata !87, i32 253} ; [ DW_TAG_subprogram ]
!733 = metadata !{i32 786478, i32 0, metadata !718, metadata !"compare", metadata !"compare", metadata !"_ZNSt11char_traitsIcE7compareEPKcS2_y", metadata !720, i32 257, metadata !734, i1 false, i1 false, i32 0, i32 0, null, i32 256, i1 false, null, null, i32 0, metadata !87, i32 257} ; [ DW_TAG_subprogram ]
!734 = metadata !{i32 786453, i32 0, metadata !"", i32 0, i32 0, i64 0, i64 0, i64 0, i32 0, null, metadata !735, i32 0, i32 0} ; [ DW_TAG_subroutine_type ]
!735 = metadata !{metadata !56, metadata !736, metadata !736, metadata !138}
!736 = metadata !{i32 786447, null, metadata !"", null, i32 0, i64 64, i64 64, i64 0, i32 0, metadata !728} ; [ DW_TAG_pointer_type ]
!737 = metadata !{i32 786478, i32 0, metadata !718, metadata !"length", metadata !"length", metadata !"_ZNSt11char_traitsIcE6lengthEPKc", metadata !720, i32 261, metadata !738, i1 false, i1 false, i32 0, i32 0, null, i32 256, i1 false, null, null, i32 0, metadata !87, i32 261} ; [ DW_TAG_subprogram ]
!738 = metadata !{i32 786453, i32 0, metadata !"", i32 0, i32 0, i64 0, i64 0, i64 0, i32 0, null, metadata !739, i32 0, i32 0} ; [ DW_TAG_subroutine_type ]
!739 = metadata !{metadata !138, metadata !736}
!740 = metadata !{i32 786478, i32 0, metadata !718, metadata !"find", metadata !"find", metadata !"_ZNSt11char_traitsIcE4findEPKcyRS1_", metadata !720, i32 265, metadata !741, i1 false, i1 false, i32 0, i32 0, null, i32 256, i1 false, null, null, i32 0, metadata !87, i32 265} ; [ DW_TAG_subprogram ]
!741 = metadata !{i32 786453, i32 0, metadata !"", i32 0, i32 0, i64 0, i64 0, i64 0, i32 0, null, metadata !742, i32 0, i32 0} ; [ DW_TAG_subroutine_type ]
!742 = metadata !{metadata !736, metadata !736, metadata !138, metadata !727}
!743 = metadata !{i32 786478, i32 0, metadata !718, metadata !"move", metadata !"move", metadata !"_ZNSt11char_traitsIcE4moveEPcPKcy", metadata !720, i32 269, metadata !744, i1 false, i1 false, i32 0, i32 0, null, i32 256, i1 false, null, null, i32 0, metadata !87, i32 269} ; [ DW_TAG_subprogram ]
!744 = metadata !{i32 786453, i32 0, metadata !"", i32 0, i32 0, i64 0, i64 0, i64 0, i32 0, null, metadata !745, i32 0, i32 0} ; [ DW_TAG_subroutine_type ]
!745 = metadata !{metadata !746, metadata !746, metadata !736, metadata !138}
!746 = metadata !{i32 786447, null, metadata !"", null, i32 0, i64 64, i64 64, i64 0, i32 0, metadata !726} ; [ DW_TAG_pointer_type ]
!747 = metadata !{i32 786478, i32 0, metadata !718, metadata !"copy", metadata !"copy", metadata !"_ZNSt11char_traitsIcE4copyEPcPKcy", metadata !720, i32 273, metadata !744, i1 false, i1 false, i32 0, i32 0, null, i32 256, i1 false, null, null, i32 0, metadata !87, i32 273} ; [ DW_TAG_subprogram ]
!748 = metadata !{i32 786478, i32 0, metadata !718, metadata !"assign", metadata !"assign", metadata !"_ZNSt11char_traitsIcE6assignEPcyc", metadata !720, i32 277, metadata !749, i1 false, i1 false, i32 0, i32 0, null, i32 256, i1 false, null, null, i32 0, metadata !87, i32 277} ; [ DW_TAG_subprogram ]
!749 = metadata !{i32 786453, i32 0, metadata !"", i32 0, i32 0, i64 0, i64 0, i64 0, i32 0, null, metadata !750, i32 0, i32 0} ; [ DW_TAG_subroutine_type ]
!750 = metadata !{metadata !746, metadata !746, metadata !138, metadata !726}
!751 = metadata !{i32 786478, i32 0, metadata !718, metadata !"to_char_type", metadata !"to_char_type", metadata !"_ZNSt11char_traitsIcE12to_char_typeERKi", metadata !720, i32 281, metadata !752, i1 false, i1 false, i32 0, i32 0, null, i32 256, i1 false, null, null, i32 0, metadata !87, i32 281} ; [ DW_TAG_subprogram ]
!752 = metadata !{i32 786453, i32 0, metadata !"", i32 0, i32 0, i64 0, i64 0, i64 0, i32 0, null, metadata !753, i32 0, i32 0} ; [ DW_TAG_subroutine_type ]
!753 = metadata !{metadata !726, metadata !754}
!754 = metadata !{i32 786448, null, null, null, i32 0, i64 0, i64 0, i64 0, i32 0, metadata !755} ; [ DW_TAG_reference_type ]
!755 = metadata !{i32 786470, null, metadata !"", null, i32 0, i64 0, i64 0, i64 0, i32 0, metadata !756} ; [ DW_TAG_const_type ]
!756 = metadata !{i32 786454, metadata !718, metadata !"int_type", metadata !720, i32 239, i64 0, i64 0, i64 0, i32 0, metadata !56} ; [ DW_TAG_typedef ]
!757 = metadata !{i32 786478, i32 0, metadata !718, metadata !"to_int_type", metadata !"to_int_type", metadata !"_ZNSt11char_traitsIcE11to_int_typeERKc", metadata !720, i32 287, metadata !758, i1 false, i1 false, i32 0, i32 0, null, i32 256, i1 false, null, null, i32 0, metadata !87, i32 287} ; [ DW_TAG_subprogram ]
!758 = metadata !{i32 786453, i32 0, metadata !"", i32 0, i32 0, i64 0, i64 0, i64 0, i32 0, null, metadata !759, i32 0, i32 0} ; [ DW_TAG_subroutine_type ]
!759 = metadata !{metadata !756, metadata !727}
!760 = metadata !{i32 786478, i32 0, metadata !718, metadata !"eq_int_type", metadata !"eq_int_type", metadata !"_ZNSt11char_traitsIcE11eq_int_typeERKiS2_", metadata !720, i32 291, metadata !761, i1 false, i1 false, i32 0, i32 0, null, i32 256, i1 false, null, null, i32 0, metadata !87, i32 291} ; [ DW_TAG_subprogram ]
!761 = metadata !{i32 786453, i32 0, metadata !"", i32 0, i32 0, i64 0, i64 0, i64 0, i32 0, null, metadata !762, i32 0, i32 0} ; [ DW_TAG_subroutine_type ]
!762 = metadata !{metadata !213, metadata !754, metadata !754}
!763 = metadata !{i32 786478, i32 0, metadata !718, metadata !"eof", metadata !"eof", metadata !"_ZNSt11char_traitsIcE3eofEv", metadata !720, i32 295, metadata !764, i1 false, i1 false, i32 0, i32 0, null, i32 256, i1 false, null, null, i32 0, metadata !87, i32 295} ; [ DW_TAG_subprogram ]
!764 = metadata !{i32 786453, i32 0, metadata !"", i32 0, i32 0, i64 0, i64 0, i64 0, i32 0, null, metadata !765, i32 0, i32 0} ; [ DW_TAG_subroutine_type ]
!765 = metadata !{metadata !756}
!766 = metadata !{i32 786478, i32 0, metadata !718, metadata !"not_eof", metadata !"not_eof", metadata !"_ZNSt11char_traitsIcE7not_eofERKi", metadata !720, i32 299, metadata !767, i1 false, i1 false, i32 0, i32 0, null, i32 256, i1 false, null, null, i32 0, metadata !87, i32 299} ; [ DW_TAG_subprogram ]
!767 = metadata !{i32 786453, i32 0, metadata !"", i32 0, i32 0, i64 0, i64 0, i64 0, i32 0, null, metadata !768, i32 0, i32 0} ; [ DW_TAG_subroutine_type ]
!768 = metadata !{metadata !756, metadata !754}
!769 = metadata !{metadata !716}
!770 = metadata !{i32 786479, null, metadata !"_Alloc", metadata !291, null, i32 0, i32 0} ; [ DW_TAG_template_type_parameter ]
!771 = metadata !{i32 786447, i32 0, metadata !"", i32 0, i32 0, i64 64, i64 64, i64 0, i32 64, metadata !263} ; [ DW_TAG_pointer_type ]
!772 = metadata !{i32 786478, i32 0, metadata !114, metadata !"operator==", metadata !"operator==", metadata !"_ZNKSt6localeeqERKS_", metadata !116, i32 224, metadata !773, i1 false, i1 false, i32 0, i32 0, null, i32 256, i1 false, null, null, i32 0, metadata !87, i32 224} ; [ DW_TAG_subprogram ]
!773 = metadata !{i32 786453, i32 0, metadata !"", i32 0, i32 0, i64 0, i64 0, i64 0, i32 0, null, metadata !774, i32 0, i32 0} ; [ DW_TAG_subroutine_type ]
!774 = metadata !{metadata !213, metadata !771, metadata !262}
!775 = metadata !{i32 786478, i32 0, metadata !114, metadata !"operator!=", metadata !"operator!=", metadata !"_ZNKSt6localeneERKS_", metadata !116, i32 233, metadata !773, i1 false, i1 false, i32 0, i32 0, null, i32 256, i1 false, null, null, i32 0, metadata !87, i32 233} ; [ DW_TAG_subprogram ]
!776 = metadata !{i32 786478, i32 0, metadata !114, metadata !"global", metadata !"global", metadata !"_ZNSt6locale6globalERKS_", metadata !116, i32 268, metadata !777, i1 false, i1 false, i32 0, i32 0, null, i32 256, i1 false, null, null, i32 0, metadata !87, i32 268} ; [ DW_TAG_subprogram ]
!777 = metadata !{i32 786453, i32 0, metadata !"", i32 0, i32 0, i64 0, i64 0, i64 0, i32 0, null, metadata !778, i32 0, i32 0} ; [ DW_TAG_subroutine_type ]
!778 = metadata !{metadata !114, metadata !262}
!779 = metadata !{i32 786478, i32 0, metadata !114, metadata !"classic", metadata !"classic", metadata !"_ZNSt6locale7classicEv", metadata !116, i32 274, metadata !780, i1 false, i1 false, i32 0, i32 0, null, i32 256, i1 false, null, null, i32 0, metadata !87, i32 274} ; [ DW_TAG_subprogram ]
!780 = metadata !{i32 786453, i32 0, metadata !"", i32 0, i32 0, i64 0, i64 0, i64 0, i32 0, null, metadata !781, i32 0, i32 0} ; [ DW_TAG_subroutine_type ]
!781 = metadata !{metadata !262}
!782 = metadata !{i32 786478, i32 0, metadata !114, metadata !"locale", metadata !"locale", metadata !"", metadata !116, i32 309, metadata !783, i1 false, i1 false, i32 0, i32 0, null, i32 385, i1 false, null, null, i32 0, metadata !87, i32 309} ; [ DW_TAG_subprogram ]
!783 = metadata !{i32 786453, i32 0, metadata !"", i32 0, i32 0, i64 0, i64 0, i64 0, i32 0, null, metadata !784, i32 0, i32 0} ; [ DW_TAG_subroutine_type ]
!784 = metadata !{null, metadata !258, metadata !119}
!785 = metadata !{i32 786478, i32 0, metadata !114, metadata !"_S_initialize", metadata !"_S_initialize", metadata !"_ZNSt6locale13_S_initializeEv", metadata !116, i32 312, metadata !132, i1 false, i1 false, i32 0, i32 0, null, i32 257, i1 false, null, null, i32 0, metadata !87, i32 312} ; [ DW_TAG_subprogram ]
!786 = metadata !{i32 786478, i32 0, metadata !114, metadata !"_S_initialize_once", metadata !"_S_initialize_once", metadata !"_ZNSt6locale18_S_initialize_onceEv", metadata !116, i32 315, metadata !132, i1 false, i1 false, i32 0, i32 0, null, i32 257, i1 false, null, null, i32 0, metadata !87, i32 315} ; [ DW_TAG_subprogram ]
!787 = metadata !{i32 786478, i32 0, metadata !114, metadata !"_S_normalize_category", metadata !"_S_normalize_category", metadata !"_ZNSt6locale21_S_normalize_categoryEi", metadata !116, i32 318, metadata !788, i1 false, i1 false, i32 0, i32 0, null, i32 257, i1 false, null, null, i32 0, metadata !87, i32 318} ; [ DW_TAG_subprogram ]
!788 = metadata !{i32 786453, i32 0, metadata !"", i32 0, i32 0, i64 0, i64 0, i64 0, i32 0, null, metadata !789, i32 0, i32 0} ; [ DW_TAG_subroutine_type ]
!789 = metadata !{metadata !218, metadata !218}
!790 = metadata !{i32 786478, i32 0, metadata !114, metadata !"_M_coalesce", metadata !"_M_coalesce", metadata !"_ZNSt6locale11_M_coalesceERKS_S1_i", metadata !116, i32 321, metadata !271, i1 false, i1 false, i32 0, i32 0, null, i32 257, i1 false, null, null, i32 0, metadata !87, i32 321} ; [ DW_TAG_subprogram ]
!791 = metadata !{i32 786474, metadata !114, null, metadata !116, i32 0, i64 0, i64 0, i64 0, i32 0, metadata !120} ; [ DW_TAG_friend ]
!792 = metadata !{i32 786474, metadata !114, null, metadata !116, i32 0, i64 0, i64 0, i64 0, i32 0, metadata !127} ; [ DW_TAG_friend ]
!793 = metadata !{i32 786478, i32 0, metadata !49, metadata !"register_callback", metadata !"register_callback", metadata !"_ZNSt8ios_base17register_callbackEPFvNS_5eventERS_iEi", metadata !5, i32 456, metadata !794, i1 false, i1 false, i32 0, i32 0, null, i32 256, i1 false, null, null, i32 0, metadata !87, i32 456} ; [ DW_TAG_subprogram ]
!794 = metadata !{i32 786453, i32 0, metadata !"", i32 0, i32 0, i64 0, i64 0, i64 0, i32 0, null, metadata !795, i32 0, i32 0} ; [ DW_TAG_subroutine_type ]
!795 = metadata !{null, metadata !796, metadata !75, metadata !56}
!796 = metadata !{i32 786447, i32 0, metadata !"", i32 0, i32 0, i64 64, i64 64, i64 0, i32 64, metadata !49} ; [ DW_TAG_pointer_type ]
!797 = metadata !{i32 786478, i32 0, metadata !49, metadata !"_M_call_callbacks", metadata !"_M_call_callbacks", metadata !"_ZNSt8ios_base17_M_call_callbacksENS_5eventE", metadata !5, i32 491, metadata !798, i1 false, i1 false, i32 0, i32 0, null, i32 258, i1 false, null, null, i32 0, metadata !87, i32 491} ; [ DW_TAG_subprogram ]
!798 = metadata !{i32 786453, i32 0, metadata !"", i32 0, i32 0, i64 0, i64 0, i64 0, i32 0, null, metadata !799, i32 0, i32 0} ; [ DW_TAG_subroutine_type ]
!799 = metadata !{null, metadata !796, metadata !48}
!800 = metadata !{i32 786478, i32 0, metadata !49, metadata !"_M_dispose_callbacks", metadata !"_M_dispose_callbacks", metadata !"_ZNSt8ios_base20_M_dispose_callbacksEv", metadata !5, i32 494, metadata !801, i1 false, i1 false, i32 0, i32 0, null, i32 258, i1 false, null, null, i32 0, metadata !87, i32 494} ; [ DW_TAG_subprogram ]
!801 = metadata !{i32 786453, i32 0, metadata !"", i32 0, i32 0, i64 0, i64 0, i64 0, i32 0, null, metadata !802, i32 0, i32 0} ; [ DW_TAG_subroutine_type ]
!802 = metadata !{null, metadata !796}
!803 = metadata !{i32 786478, i32 0, metadata !49, metadata !"_M_grow_words", metadata !"_M_grow_words", metadata !"_ZNSt8ios_base13_M_grow_wordsEib", metadata !5, i32 517, metadata !804, i1 false, i1 false, i32 0, i32 0, null, i32 258, i1 false, null, null, i32 0, metadata !87, i32 517} ; [ DW_TAG_subprogram ]
!804 = metadata !{i32 786453, i32 0, metadata !"", i32 0, i32 0, i64 0, i64 0, i64 0, i32 0, null, metadata !805, i32 0, i32 0} ; [ DW_TAG_subroutine_type ]
!805 = metadata !{metadata !806, metadata !796, metadata !56, metadata !213}
!806 = metadata !{i32 786448, null, null, null, i32 0, i64 0, i64 0, i64 0, i32 0, metadata !96} ; [ DW_TAG_reference_type ]
!807 = metadata !{i32 786478, i32 0, metadata !49, metadata !"_M_init", metadata !"_M_init", metadata !"_ZNSt8ios_base7_M_initEv", metadata !5, i32 523, metadata !801, i1 false, i1 false, i32 0, i32 0, null, i32 258, i1 false, null, null, i32 0, metadata !87, i32 523} ; [ DW_TAG_subprogram ]
!808 = metadata !{i32 786478, i32 0, metadata !49, metadata !"flags", metadata !"flags", metadata !"_ZNKSt8ios_base5flagsEv", metadata !5, i32 549, metadata !809, i1 false, i1 false, i32 0, i32 0, null, i32 256, i1 false, null, null, i32 0, metadata !87, i32 549} ; [ DW_TAG_subprogram ]
!809 = metadata !{i32 786453, i32 0, metadata !"", i32 0, i32 0, i64 0, i64 0, i64 0, i32 0, null, metadata !810, i32 0, i32 0} ; [ DW_TAG_subroutine_type ]
!810 = metadata !{metadata !65, metadata !811}
!811 = metadata !{i32 786447, i32 0, metadata !"", i32 0, i32 0, i64 64, i64 64, i64 0, i32 64, metadata !812} ; [ DW_TAG_pointer_type ]
!812 = metadata !{i32 786470, null, metadata !"", null, i32 0, i64 0, i64 0, i64 0, i32 0, metadata !49} ; [ DW_TAG_const_type ]
!813 = metadata !{i32 786478, i32 0, metadata !49, metadata !"flags", metadata !"flags", metadata !"_ZNSt8ios_base5flagsESt13_Ios_Fmtflags", metadata !5, i32 560, metadata !814, i1 false, i1 false, i32 0, i32 0, null, i32 256, i1 false, null, null, i32 0, metadata !87, i32 560} ; [ DW_TAG_subprogram ]
!814 = metadata !{i32 786453, i32 0, metadata !"", i32 0, i32 0, i64 0, i64 0, i64 0, i32 0, null, metadata !815, i32 0, i32 0} ; [ DW_TAG_subroutine_type ]
!815 = metadata !{metadata !65, metadata !796, metadata !65}
!816 = metadata !{i32 786478, i32 0, metadata !49, metadata !"setf", metadata !"setf", metadata !"_ZNSt8ios_base4setfESt13_Ios_Fmtflags", metadata !5, i32 576, metadata !814, i1 false, i1 false, i32 0, i32 0, null, i32 256, i1 false, null, null, i32 0, metadata !87, i32 576} ; [ DW_TAG_subprogram ]
!817 = metadata !{i32 786478, i32 0, metadata !49, metadata !"setf", metadata !"setf", metadata !"_ZNSt8ios_base4setfESt13_Ios_FmtflagsS0_", metadata !5, i32 593, metadata !818, i1 false, i1 false, i32 0, i32 0, null, i32 256, i1 false, null, null, i32 0, metadata !87, i32 593} ; [ DW_TAG_subprogram ]
!818 = metadata !{i32 786453, i32 0, metadata !"", i32 0, i32 0, i64 0, i64 0, i64 0, i32 0, null, metadata !819, i32 0, i32 0} ; [ DW_TAG_subroutine_type ]
!819 = metadata !{metadata !65, metadata !796, metadata !65, metadata !65}
